(dp0
S'80c99ddd3ebc113d5882dd88.html'
p1
(dp2
S'category'
p3
V\u7c7b\u522b\uff1a\u90a3\u4e9b\u4e66
p4
sS'date'
p5
V2009-08-17  19:45
p6
sS'title'
p7
V\u000a\u000a\u300aC\u9677\u9631\u4e0e\u7f3a\u9677\u300b
p8
ssS'6a1e00d1c5479fd8562c84f0.html'
p9
(dp10
g3
V\u7c7b\u522b\uff1ac&#47;c++
p11
sg5
V2010-01-20  14:09
p12
sg7
V\u000a\u000a\u53ef\u53d8\u53c2\u6570\uff08C,C++,stdarg.h,\u5168\u53ef\u53d8\u53c2\u6570\u5b9e\u73b0)
p13
ssS'0a3fa76e701548d280cb4aa7.html'
p14
(dp15
g3
V\u7c7b\u522b\uff1aScm
p16
sg5
V2009-03-10  19:11
p17
sg7
V\u000a\u000a\u4e32\u884c\u901a\u4fe1\u548c\u865a\u62df\u7ec8\u7aef
p18
ssS'6a1e00d126a822da562c8401.html'
p19
(dp20
g3
V\u7c7b\u522b\uff1a\u7b97\u6cd5
p21
sg5
V2009-08-24  14:23
p22
sg7
V\u000a\u000a\u5f02\u60f3\u5929\u5f00\u7684\u52063\u6bb5\u5feb\u6392\u3002\u3002\u3002
p23
ssS'daf9435475bac95c574e00ef.html'
p24
(dp25
g3
V\u7c7b\u522b\uff1aScm
p26
sg5
V2009-03-08  14:06
p27
sg7
V\u000a\u000a74LS273\u8f85\u52a9\u5916\u90e8\u5bfb\u5740\u7684\u6570\u7801\u7ba1
p28
ssS'bebbf9deed85a45f94ee379b.html'
p29
(dp30
g3
V\u7c7b\u522b\uff1aMatlab
p31
sg5
V2009-12-27  13:01
p32
sg7
V\u000a\u000aFFT\u76f8\u5173\uff08\u4e8c\uff09\uff08MATLAB\uff09\uff08DIT4\u9012\u5f52\u5b9e\u73b0)
p33
ssS'c762de3f05bd99ce7c1e717b.html'
p34
(dp35
g3
V\u7c7b\u522b\uff1aEnglish
p36
sg5
V2010-04-05  11:16
p37
sg7
V\u000a\u000aArt Roots In Life -- New Findings of &#34;Last Supper&#34;
p38
ssS'd97fdb437f31d81a72f05d09.html'
p39
(dp40
g3
V\u7c7b\u522b\uff1a\u6742\u724c\u5c0f\u8bb0
p41
sg5
V2009-06-16  15:57
p42
sg7
V\u000a\u000a\u4fe1\u606f\u8bba\u4e2d\u7684\u4e00\u4e9b\u542f\u53d1
p43
ssS'3695942feb5033381e308927.html'
p44
(dp45
g3
V\u7c7b\u522b\uff1a\u7f51\u5740\u6536\u96c6
p46
sg5
V2006-08-31  09:43
p47
sg7
V\u000a\u000asome english learning websites
p48
ssS'd8001fce3f9bea31b700c85e.html'
p49
(dp50
g3
V\u7c7b\u522b\uff1ac&#47;c++
p51
sg5
V2009-03-26  17:13
p52
sg7
V\u000a\u000asprintf\u7b2c\u4e00\u4e2a\u53c2\u6570\uff1f\uff1f
p53
ssS'82f9ba7ea4d68d350dd7da2a.html'
p54
(dp55
g3
V\u7c7b\u522b\uff1a\u6742\u724c\u5c0f\u8bb0
p56
sg5
V2010-08-11  22:36
p57
sg7
V\u000a\u000a\u5e1d\u90fd\u9171\u6cb9\u8bb0\uff1f\uff01\uff08\u56db\uff09--\u4ea4\u901a\u95ee\u9898
p58
ssS'0035a3ec8c4f702c63d09f35.html'
p59
(dp60
g3
V\u7c7b\u522b\uff1aMatlab
p61
sg5
V2009-12-20  12:54
p62
sg7
V\u000a\u000aMATLAB\u7b26\u53f7\u8fd0\u7b97\u6c42\u5085\u7acb\u53f6\u53d8\u6362\uff08\u53cd\u53d8\u6362\uff09
p63
ssS'f7277189e89051b90e2444d1.html'
p64
(dp65
g3
V\u7c7b\u522b\uff1a\u7535\u8111\u6280\u672f
p66
sg5
V2009-10-17  20:29
p67
sg7
V\u000a\u000aVISTA\u7684\u4e00\u8be1\u5f02\u4e8b\u4ef6
p68
ssS'a973a3018a01290d1d95839b.html'
p69
(dp70
g3
V\u7c7b\u522b\uff1aLinux
p71
sg5
V2010-01-06  22:04
p72
sg7
V\u000a\u000ashell\u4e2d\u7684\u51fd\u6570\u3002\u3002\uff08\u86cb\u75bc\u4e86\u4e00\u4e2a\u6c49\u8bfa\u5854\uff09
p73
ssS'b66cc3174d201e01c83d6d74.html'
p74
(dp75
g3
V\u7c7b\u522b\uff1aVc
p76
sg5
V2009-04-19  18:45
p77
sg7
V\u000a\u000a\u4e4c\u9f9f\u8def\u7ebf
p78
ssS'f8ba3f2a3ccb45335243c1e9.html'
p79
(dp80
g3
V\u7c7b\u522b\uff1a\u6742\u724c\u5c0f\u8bb0
p81
sg5
V2010-01-11  18:56
p82
sg7
V\u000a\u000a\u770b\u56fe\u8bf4\u8bdd\uff08\u622a\u81ea\u9a6c\u539f\u8bfe\u4ef6\u3002\u3002\uff09
p83
ssS'83afdc88684f859ca5c27206.html'
p84
(dp85
g3
V\u7c7b\u522b\uff1aScm
p86
sg5
V2009-02-28  18:12
p87
sg7
V\u000a\u000a\u6309\u94ae\u3001\u5916\u90e8\u4e2d\u65ad\u3001\u7ffb\u8f6c\u706f
p88
ssS'46c61bdf85e6661463279898.html'
p89
(dp90
g3
V\u7c7b\u522b\uff1a\u4e4c\u4e03\u516b\u7cdf\u7684\u4e00\u4e9b\u4e8b
p91
sg5
V2009-02-18  22:07
p92
sg7
V\u000a\u000a\u6587\u4ef6\u7ed3\u5c3e\u7684\u5b9e\u9a8c\uff08C\u548cC++\u5bf9\u6bd4\uff09
p93
ssS'c4d3bc00d985528ee850cd0e.html'
p94
(dp95
g3
V\u7c7b\u522b\uff1ac&#47;c++
p96
sg5
V2009-07-20  22:36
p97
sg7
V\u000a\u000a\u628aqq\u804a\u5929\u8bb0\u5f55\u8f6c\u5316\u6210\u6bd4\u8f83\u5bb9\u6613\u64cd\u4f5c\u7684\u683c\u5f0f
p98
ssS'afe3616341ae146c0d33fae5.html'
p99
(dp100
g3
V\u7c7b\u522b\uff1ac&#47;c++
p101
sg5
V2010-04-27  11:36
p102
sg7
V\u000a\u000a\u5185\u5b58\u5bf9\u9f50\uff08\u7ed3\u6784\u4f53\u548c\u6808\u7684\u5dee\u5f02\uff0c\u53d6\u6210\u5458\u504f\u79fb\uff0c\u5bf9\u9f50\u5730\u5740\u8ba1\u7b97\uff09
p103
ssS'bcde53828af2f6ae0df4d25f.html'
p104
(dp105
g3
V\u7c7b\u522b\uff1a\u6742\u724c\u5c0f\u8bb0
p106
sg5
V2010-03-28  11:57
p107
sg7
V\u000a\u000acompass\u7684\u521b\u4e1a\u8bb2\u5ea7
p108
ssS'52fc6722a32d1cac4723e83e.html'
p109
(dp110
g3
V\u7c7b\u522b\uff1a\u7b97\u6cd5
p111
sg5
V2009-03-25  12:49
p112
sg7
V\u000a\u000a\u591a\u7ef4\u8ff7\u5bab\u7684\u964d\u7ef4\u89e3\u6cd5\uff08POJ3454 Hypertheseus)
p113
ssS'c62071cb4d9b1917bf09e6b4.html'
p114
(dp115
g3
V\u7c7b\u522b\uff1a\u7b97\u6cd5
p116
sg5
V2009-06-05  15:10
p117
sg7
V\u000a\u000a4\u79cd\u53ef\u5e76\u5806
p118
ssS'7cc8454a7ee48d2b08f7ef57.html'
p119
(dp120
g3
V\u7c7b\u522b\uff1a\u4e4c\u4e03\u516b\u7cdf\u7684\u4e00\u4e9b\u4e8b
p121
sg5
V2009-05-23  16:39
p122
sg7
V\u000a\u000aMATLAB\u7684sort\uff0cfor\u5faa\u73af\uff0c\u5143\u80de\u6570\u7ec4
p123
ssS'6a1e00d1aa0dbed8562c84ae.html'
p124
(dp125
g3
V\u7c7b\u522b\uff1aLinux
p126
sg5
V2010-01-08  19:39
p127
sg7
V\u000a\u000a\u73af\u5883\u53d8\u91cf\u51fd\u6570\uff08C,Linux\uff09
p128
ssS'e3395d2c61c50ee58b13996a.html'
p129
(dp130
g3
V\u7c7b\u522b\uff1a\u7b97\u6cd5
p131
sg5
V2009-08-10  15:36
p132
sg7
V\u000a\u000aSparse Table\u89e3\u51b3RMQ\u95ee\u9898\uff08POJ3368)
p133
ssS'f6fb9aefa2b401ffcf1b3e09.html'
p134
(dp135
g3
V\u7c7b\u522b\uff1a\u6742\u724c\u5c0f\u8bb0
p136
sg5
V2010-11-19  23:47
p137
sg7
V\u000a\u000a\u3010\u5404\u79cd\u6559\u5506\u3011\u5fc5\u9700\u54c1
p138
ssS'1d19ddca99f5454df31fe750.html'
p139
(dp140
g3
V\u7c7b\u522b\uff1aLinux
p141
sg5
V2010-01-09  16:06
p142
sg7
V\u000a\u000a\u4e00\u5957\u5de5\u4f5c\u73af\u5883\uff08ubuntu,vi,bash,gcc,gdb,octave)
p143
ssS'8504fa1f012467f9e1fe0b67.html'
p144
(dp145
g3
V\u7c7b\u522b\uff1aEnglish
p146
sg5
V2010-04-09  19:19
p147
sg7
V\u000a\u000a[song]&#34;Moonlight Shadow&#34;, Accidental Reencounter
p148
ssS'3c1feafe72de21395d60088a.html'
p149
(dp150
g3
V\u7c7b\u522b\uff1a\u7f51\u5740\u6536\u96c6
p151
sg5
V2009-05-05  15:23
p152
sg7
V\u000a\u000a\u4e2d\u4f4d\u6570\uff0c\u5927\u5c0f\u5c3e\u6d4b\u8bd5\uff0cINI\u89e3\u6790
p153
ssS'12d151b58e62eac937d3ca1e.html'
p154
(dp155
g3
V\u7c7b\u522b\uff1a\u4e4c\u4e03\u516b\u7cdf\u7684\u4e00\u4e9b\u4e8b
p156
sg5
V2009-02-27  15:40
p157
sg7
V\u000a\u000a\u51fd\u6570\u7533\u660e\u7684\u4f4d\u7f6e\u9020\u6210\u7684\u5f71\u54cd(VC6)
p158
ssS'c1fc032439efab21d507428f.html'
p159
(dp160
g3
V\u7c7b\u522b\uff1aNetwork
p161
sg5
V2009-10-04  21:01
p162
sg7
V\u000a\u000a\u6309CIDR\u65b9\u5f0f\u805a\u5408\u7684\u4e2d\u56fd\u8def\u7531
p163
ssS'39de3e9b21ac79aec8eaf4f8.html'
p164
(dp165
g3
V\u7c7b\u522b\uff1a\u6742\u724c\u5c0f\u8bb0
p166
sg5
V2011-09-01  22:18
p167
sg7
V\u000a\u000a\u5173\u4e8e\u7231\u60c5\u7684\u5934\u8111\u98ce\u66b4\uff082\uff09HITS\u7b97\u6cd5
p168
ssS'b528771e917c71fe1ad5763f.html'
p169
(dp170
g3
V\u7c7b\u522b\uff1a\u7b97\u6cd5
p171
sg5
V2009-10-29  16:27
p172
sg7
V\u000a\u000a1-n\u7684\u6570\u7ec4\u6210\u7684huffman\u6811\u7684\u6743\u91cd
p173
ssS'addb5660b04359d28cb10d86.html'
p174
(dp175
g3
V\u7c7b\u522b\uff1a\u7b97\u6cd5
p176
sg5
V2010-06-06  15:25
p177
sg7
V\u000a\u000aMapReduce--Simplified Modeling of The Phisical World
p178
ssS'34c7de2a52b2fc90023bf618.html'
p179
(dp180
g3
V\u7c7b\u522b\uff1a\u90a3\u4e9b\u4e66
p181
sg5
V2010-02-24  10:09
p182
sg7
V\u000a\u000a\u300a\u8d70\u8fdb\u641c\u7d22\u5f15\u64ce\u300b
p183
ssS'6a1e00d1185a68d2562c840b.html'
p184
(dp185
g3
V\u7c7b\u522b\uff1a\u6742\u724c\u5c0f\u8bb0
p186
sg5
V2007-05-12  20:52
p187
sg7
V\u000a\u000a\u5e73\u5934\u906d\u9047
p188
ssS'daf94354c3c31b5c574e00b7.html'
p189
(dp190
g3
V\u7c7b\u522b\uff1a\u6742\u724c\u5c0f\u8bb0
p191
sg5
V2009-05-21  22:25
p192
sg7
V\u000a\u000athe answer to life, the universe, and everything\u7684\u9012\u5f52\u3002\u3002\u6211\u56e7
p193
ssS'96ebab8b0cae5e739f2fb40b.html'
p194
(dp195
g3
V\u7c7b\u522b\uff1aEnglish
p196
sg5
V2010-04-25  12:23
p197
sg7
V\u000a\u000a[movie] Alice In Wonderland (2010)
p198
ssS'40e5d3f955a8dc55242df21d.html'
p199
(dp200
g3
V\u7c7b\u522b\uff1a\u6742\u724c\u5c0f\u8bb0
p201
sg5
V2010-05-16  15:54
p202
sg7
V\u000a\u000aJenny\u7684\u660e\u4fe1\u7247
p203
ssS'b939f71f7b09fe00314e1555.html'
p204
(dp205
g3
V\u7c7b\u522b\uff1a\u6742\u724c\u5c0f\u8bb0
p206
sg5
V2009-10-21  14:05
p207
sg7
V\u000a\u000a\u3010\u5404\u79cd\u6559\u5506\u3011\u7b2c\u4e8c\u6ce2\u5ffd\u60a0\u7684\u63d0\u7eb2\uff08\u5927\u5b66\u79d1\u6280\u751f\u6d3b\u4e3b\u9898\uff09
p208
ssS'ec10a551ddd2e6938d543076.html'
p209
(dp210
g3
V\u7c7b\u522b\uff1a\u6742\u724c\u5c0f\u8bb0
p211
sg5
V2011-10-16  19:15
p212
sg7
V\u000a\u000a\u5510\u697c\u4e3a\u79cb\u96e8\u6240\u7834\uff01
p213
ssS'e9f38c18ddd9cbbd4bedbcf3.html'
p214
(dp215
g3
V\u7c7b\u522b\uff1ac&#47;c++
p216
sg5
V2009-06-19  17:33
p217
sg7
V\u000a\u000a\u63a7\u5236\u53f0\u7a97\u53e3\u7ed8\u56fe(dev-c++)
p218
ssS'24c0cc5c854ee84bfaf2c00d.html'
p219
(dp220
g3
V\u7c7b\u522b\uff1aMath
p221
sg5
V2009-05-17  10:14
p222
sg7
V\u000a\u000a\u5355\u7eaf\u5f62\u6cd5\uff08\u7f5a\u51fd\u6570\uff0cMATLAB)
p223
ssS'cc2e5bda324f2cd3b7fd4812.html'
p224
(dp225
g3
V\u7c7b\u522b\uff1aScm
p226
sg5
V2009-03-08  20:05
p227
sg7
V\u000a\u000a8255A\u7684\u8f93\u5165\u8f93\u51fa\u5e94\u7528
p228
ssS'691afd36243125390b55a981.html'
p229
(dp230
g3
V\u7c7b\u522b\uff1a\u7b97\u6cd5
p231
sg5
V2009-04-07  22:21
p232
sg7
V\u000a\u000aPeg solitaire--\u7c7b\u4f3c\u5b54\u660e\u68cb\u7684\u6e38\u620f\uff08BFS+\u5b8c\u5168\u6563\u5217\uff09
p233
ssS'534dd3332e03224bac4b5fed.html'
p234
(dp235
g3
V\u7c7b\u522b\uff1a\u6742\u724c\u5c0f\u8bb0
p236
sg5
V2009-06-08  11:09
p237
sg7
V\u000a\u000a\u300a\u719f\u6089\u300b\u2014\u2014\u56db\u5ddd\u7701\u9ad8\u8003\u4f5c\u6587
p238
ssS'2bc327f599e6972cbd31096f.html'
p239
(dp240
g3
V\u7c7b\u522b\uff1aVc
p241
sg5
V2009-06-18  11:57
p242
sg7
V\u000a\u000awindows\u5f02\u5e38\u5904\u7406\u673a\u5236\u7684\u51e0\u4e2a\u7b80\u5355\u5b9e\u9a8c\uff08__try , __finally , __except)\uff08VC6)
p243
ssS'a5658654254c22183b2935f0.html'
p244
(dp245
g3
V\u7c7b\u522b\uff1a\u4e4c\u4e03\u516b\u7cdf\u7684\u4e00\u4e9b\u4e8b
p246
sg5
V2009-02-07  21:03
p247
sg7
V\u000a\u000aMASMPlus\u7684.inc \u548c \u63d0\u793a\u4e0d\u5339\u914d\u7684\u4e00\u4e9b
p248
ssS'18c9d7545b021752d0090624.html'
p249
(dp250
g3
V\u7c7b\u522b\uff1a\u6742\u724c\u5c0f\u8bb0
p251
sg5
V2009-10-31  16:25
p252
sg7
V\u000a\u000a\u5206\u997c\u7684\u516c\u5e73\u6027\u95ee\u9898
p253
ssS'56fab312a4b48fc2c2fd785a.html'
p254
(dp255
g3
V\u7c7b\u522b\uff1aEnglish
p256
sg5
V2010-04-10  15:00
p257
sg7
V\u000a\u000a\u3010\u5404\u79cd\u6559\u5506\u3011Everyday Is The Key Day -- &#39;Lifetime Learning&#39;
p258
ssS'16e222387e34412cb8998f93.html'
p259
(dp260
g3
V\u7c7b\u522b\uff1a\u7b97\u6cd5
p261
sg5
V2009-05-09  19:09
p262
sg7
V\u000a\u000aTIC\u8d44\u683c\u8d5b
p263
ssS'b66cc31745dc1605c83d6dbc.html'
p264
(dp265
g3
V\u7c7b\u522b\uff1a\u6742\u724c\u5c0f\u8bb0
p266
sg5
V2010-04-22  22:41
p267
sg7
V\u000a\u000a\u3010impossible.\u5934\u8111\u75af\u4e86\u7cfb\u5217.7\u3011\u6559\u6388\u79d1\u7814\u5206\u79bb\uff01\u5b66\u4e60\u8003\u8bd5\u5206\u79bb\uff01
p268
ssS'4b45ae0f891fe4edaa6457aa.html'
p269
(dp270
g3
V\u7c7b\u522b\uff1aoi\u6863\u6848
p271
sg5
V2006-09-09  19:27
p272
sg7
V\u000a\u000apascal \u9519\u8bef\u4ee3\u7801
p273
ssS'691afd36ec1cdd390b55a9b6.html'
p274
(dp275
g3
V\u7c7b\u522b\uff1aVb
p276
sg5
V2009-05-08  15:51
p277
sg7
V\u000a\u000aVB\u7528DDE\u8bfb\u53d6EXCEL\u91cc\u9762\u7684\u6570\u636e
p278
ssS'db6a6f389c0e592b96ddd8a8.html'
p279
(dp280
g3
V\u7c7b\u522b\uff1aVc
p281
sg5
V2009-05-22  19:07
p282
sg7
V\u000a\u000awin32\u7a0b\u5e8f\u542f\u7528\u63a7\u5236\u53f0\uff08\u63a7\u5236\u53f0\u6587\u4ef6\u540d\uff1aconout$,conin$,conerr$)
p283
ssS'314e4c23e25fd05e9922edfb.html'
p284
(dp285
g3
V\u7c7b\u522b\uff1aNetwork
p286
sg5
V2010-04-06  15:18
p287
sg7
V\u000a\u000a\u89e3\u51b3TCP\u7684TIME-WAIT\u72b6\u6001\u5bfc\u81f4\u7684\u7aef\u53e3\u5360\u7528\uff08\u56db\u79cd\u65b9\u6cd5\uff09
p288
ssS'2047c1eff189972cadafd5e1.html'
p289
(dp290
g3
V\u7c7b\u522b\uff1a\u6742\u724c\u5c0f\u8bb0
p291
sg5
V2011-08-11  12:38
p292
sg7
V\u000a\u000a\u4e00\u7ec4\u5173\u4e8e\u6c34\u7684\u5b9e\u9a8c
p293
ssS'438cda166db8c213962b43f5.html'
p294
(dp295
g3
V\u7c7b\u522b\uff1a\u7f51\u5740\u6536\u96c6
p296
sg5
V2010-01-19  09:12
p297
sg7
V\u000a\u000a\u4ece\u5360\u6c49\u5b57\u7684\u4e00\u4e2a\u7f51\u9875\u6240\u60f3
p298
ssS'c6c06a59ffc9b22e2934f0b7.html'
p299
(dp300
g3
V\u7c7b\u522b\uff1aEnglish
p301
sg5
V2008-01-31  23:00
p302
sg7
V\u000a\u000ano.3(instruments)
p303
ssS'6ed46d09962f3edf3ac76368.html'
p304
(dp305
g3
V\u7c7b\u522b\uff1aNetwork
p306
sg5
V2010-11-11  23:57
p307
sg7
V\u000a\u000aSYN Cookies
p308
ssS'612531c7cb0da4c8d000604a.html'
p309
(dp310
g3
V\u7c7b\u522b\uff1a\u6742\u724c\u5c0f\u8bb0
p311
sg5
V2011-02-27  20:05
p312
sg7
V\u000a\u000a\u3010\u5927\u5b66ABC\u3011\u5bfb\u627e\u7f51\u7edc
p313
ssS'a8f8c2fc1d4d18f2fd037f19.html'
p314
(dp315
g3
V\u7c7b\u522b\uff1a\u6742\u724c\u5c0f\u8bb0
p316
sg5
V2010-11-01  00:46
p317
sg7
V\u000a\u000a\u5e1d\u90fd\u9171\u6cb9\u8bb0\uff1f\uff01\uff08\u4e5d\uff09--\u51e4\u51f0\u5cad
p318
ssS'2210888be48af6dbfc1f10e2.html'
p319
(dp320
g3
V\u7c7b\u522b\uff1aScm
p321
sg5
V2009-04-08  18:37
p322
sg7
V\u000a\u000a\u7f16\u7801\u53ca\u663e\u793a\u8bd1\u7801\u7535\u8def\uff0874LS148\uff06CD4511\uff09
p323
ssS'b22676d94bc7a2e038012faf.html'
p324
(dp325
g3
V\u7c7b\u522b\uff1a\u90a3\u4e9b\u4e66
p326
sg5
V2009-08-09  13:43
p327
sg7
V\u000a\u000a\u300a\u81f4\u52a0\u897f\u4e9a\u7684\u4e00\u5c01\u4fe1\u300b
p328
ssS'e234be8fedd8b5e7f11f361b.html'
p329
(dp330
g3
V\u7c7b\u522b\uff1a\u7535\u8111\u6280\u672f
p331
sg5
V2009-06-25  17:41
p332
sg7
V\u000a\u000a\u5f88\u7ae5\u771f\u7684\u73a9\u5177\u2014\u2014Scratch
p333
ssS'1b3b68d911cf652010df9b77.html'
p334
(dp335
g3
V\u7c7b\u522b\uff1aNetwork
p336
sg5
V2010-04-01  13:19
p337
sg7
V\u000a\u000aTCP\u7684TIME-WAIT\u72b6\u6001
p338
ssS'8fbb05b30fb894a0d8335ae9.html'
p339
(dp340
g3
V\u7c7b\u522b\uff1aAsm
p341
sg5
V2009-02-09  16:16
p342
sg7
V\u000a\u000a\u7f16\u8bd1\u5668\u6253\u8868\uff08MASM)
p343
ssS'cb5e40edd67c8cdcb21cb166.html'
p344
(dp345
g3
V\u7c7b\u522b\uff1aScm
p346
sg5
V2009-03-02  17:27
p347
sg7
V\u000a\u000aKEIL C \u7f16\u8bd1\u7684TRICK\u63a2\u7a763\uff08\u51fd\u6570\u4e2d\u5c40\u90e8\u53d8\u91cf\u7684\u521d\u59cb\u6570\u636e\uff09
p348
ssS'16e2223804750723b9998f53.html'
p349
(dp350
g3
V\u7c7b\u522b\uff1aVc
p351
sg5
V2009-02-19  21:55
p352
sg7
V\u000a\u000aMAP\u6587\u4ef6\u548c\u8c03\u8bd5\uff08VC)(\u4ece\u5d29\u6e83\u5730\u5740\u627e\u51fa\u9519\u6e90\u7801\u4f4d\u7f6e)
p353
ssS'83afdc88f1e81e9ea5c272af.html'
p354
(dp355
g3
V\u7c7b\u522b\uff1a\u6742\u724c\u5c0f\u8bb0
p356
sg5
V2009-11-07  19:52
p357
sg7
V\u000a\u000a\u7a0b\u63a7\u4ea4\u6362\u5b9e\u9a8c\u7684\u673a\u623f
p358
ssS'63e406f340a9e2c60b46e03f.html'
p359
(dp360
g3
V\u7c7b\u522b\uff1a\u7535\u8111\u6280\u672f
p361
sg5
V2010-07-17  22:12
p362
sg7
V\u000a\u000aGFS\uff0c\u6742\u8bb0
p363
ssS'8d68db581b68ad89810a18ae.html'
p364
(dp365
g3
V\u7c7b\u522b\uff1a\u7b97\u6cd5
p366
sg5
V2009-05-19  20:56
p367
sg7
V\u000a\u000a\u5e73\u8861\u4e8c\u53c9\u6811\u5b9e\u73b0\u8be6\u89e3\uff08AVLTree\uff09\uff08\u4e00\uff09\u65cb\u8f6c\u548c\u5e73\u8861
p368
ssS'f8ba3f2abfe8c62d5243c1d0.html'
p369
(dp370
g3
V\u7c7b\u522b\uff1a\u6742\u724c\u5c0f\u8bb0
p371
sg5
V2011-04-04  20:30
p372
sg7
V\u000a\u000a\u8f6c\u6298\u4e86\u8f6c\u6298\uff0c\u4e00\u7247\u6d6e\u4e91\u4e09\u6708\u3002
p373
ssS'f6fb9aefeb4c7afecf1b3ee2.html'
p374
(dp375
g3
V\u7c7b\u522b\uff1a\u6742\u724c\u5c0f\u8bb0
p376
sg5
V2010-12-19  23:30
p377
sg7
V\u000a\u000a\u5e1d\u90fd\u9171\u6cb9\u8bb0\uff1f\uff01\uff08\u5341\u4e00\uff09
p378
ssS'96aee1f871588107d8f9fd63.html'
p379
(dp380
g3
V\u7c7b\u522b\uff1aMath
p381
sg5
V2009-05-25  13:56
p382
sg7
V\u000a\u000a\u753b\u5fc3\uff08MATLAB\uff0cfill\uff0c\u300a\u9b54\u672f\u5e08\u300b\uff09
p383
ssS'd97fdb43515f0e1b72f05d63.html'
p384
(dp385
g3
V\u7c7b\u522b\uff1ac&#47;c++
p386
sg5
V2009-05-31  12:15
p387
sg7
V\u000a\u000a\u5e38\u91cf\u533a\u7684\u95ee\u9898\uff08VC6.DEBUG , VC6.RELEASE)
p388
ssS'96ebab8b71e129739f2fb44a.html'
p389
(dp390
g3
V\u7c7b\u522b\uff1aVc
p391
sg5
V2010-03-20  11:48
p392
sg7
V\u000a\u000a\u7ea4\u7a0b(fiber)\uff08\u534f\u7a0b(coroutine)\uff09\u63cf\u8ff0\u7684\u751f\u4ea7\u8005-\u6d88\u8d39\u8005\u6a21\u578b
p393
ssS'2047c1ef6e04003dadafd566.html'
p394
(dp395
g3
V\u7c7b\u522b\uff1a\u6742\u724c\u5c0f\u8bb0
p396
sg5
V2010-01-08  10:26
p397
sg7
V\u000a\u000a\u8054\u60f3\u4e00\u4e0b
p398
ssS'9a3eb91c85f1a18286d6b687.html'
p399
(dp400
g3
V\u7c7b\u522b\uff1a\u7f51\u5740\u6536\u96c6
p401
sg5
V2009-06-13  10:52
p402
sg7
V\u000a\u000amaopost\uff08\u8d85\u9177\u3002\u3002\uff09
p403
ssS'8aba45c2f59dd03fe4dd3b97.html'
p404
(dp405
g3
V\u7c7b\u522b\uff1a\u7535\u8111\u6280\u672f
p406
sg5
V2009-10-14  15:31
p407
sg7
V\u000a\u000a\u4e00\u7ec4\u7b14\u8bd5\u9898
p408
ssS'bc84d7c45e7739c038db49c6.html'
p409
(dp410
g3
V\u7c7b\u522b\uff1aEnglish
p411
sg5
V2010-02-17  22:57
p412
sg7
V\u000a\u000asaying sorry to one&#39;s right ear
p413
ssS'8ed7f2dc0f1e6ea6cc116674.html'
p414
(dp415
g3
V\u7c7b\u522b\uff1ac&#47;c++
p416
sg5
V2009-02-08  15:30
p417
sg7
V\u000a\u000a\u6307\u9488\u548c\u6570\u7ec4\u7684\u8bef\u89e3_\u8bfb\u540e\u5b9e\u9a8c\u7b14\u8bb0
p418
ssS'967eaec21c81b2110ff477f7.html'
p419
(dp420
g3
V\u7c7b\u522b\uff1aMath
p421
sg5
V2009-10-18  14:10
p422
sg7
V\u000a\u000a\u62c9\u683c\u6717\u65e5\u677e\u5f1b(SubGradient Method)
p423
ssS'39d21530c4f66597a8018eaf.html'
p424
(dp425
g3
V\u7c7b\u522b\uff1a\u6742\u724c\u5c0f\u8bb0
p426
sg5
V2010-10-07  01:41
p427
sg7
V\u000a\u000a\u4ece\u627f\u8bfa\u8bf4\u8d77
p428
ssS'a8f8c2fc44c5f1f6fd037f64.html'
p429
(dp430
g3
V\u7c7b\u522b\uff1a\u6742\u724c\u5c0f\u8bb0
p431
sg5
V2009-12-30  20:48
p432
sg7
V\u000a\u000a09\u5e74\u672b\u7684\u63d2\u66f2
p433
ssS'a973a3013097ff0e1c9583f6.html'
p434
(dp435
g3
V\u7c7b\u522b\uff1a\u4e4c\u4e03\u516b\u7cdf\u7684\u4e00\u4e9b\u4e8b
p436
sg5
V2009-04-30  09:23
p437
sg7
V\u000a\u000a\u4ece\u53d8\u5f97\u4e00\u56e2\u7cdf\u7684\u56fe\u50cf\u8bf4\u8d77\u3002\u3002\u3002\uff08memDC\u4e0d\u8981\u5fd8\u4e86\u5173\u95ed\u554a\u3002\u3002)
p438
ssS'86c1de0784d4c6c17a894740.html'
p439
(dp440
g3
V\u7c7b\u522b\uff1a\u6742\u724c\u5c0f\u8bb0
p441
sg5
V2010-03-26  11:08
p442
sg7
V\u000a\u000a\u5173\u4e8e\u5730\u9707\u7684\u6742\u8bb0\u51e0\u6761
p443
ssS'b528771ecf13abf81bd5769a.html'
p444
(dp445
g3
V\u7c7b\u522b\uff1a\u7535\u8111\u6280\u672f
p446
sg5
V2010-05-09  14:39
p447
sg7
V\u000a\u000ados\u6279\u5904\u7406\u547d\u4ee4\u5b9e\u73b0\u7684\u5ef6\u65f6
p448
ssS'56fab312cc7677c7c2fd7819.html'
p449
(dp450
g3
V\u7c7b\u522b\uff1a\u7b97\u6cd5
p451
sg5
V2009-08-14  19:46
p452
sg7
V\u000a\u000a\u6b21\u5c0f\u751f\u6210\u6811\uff08VIJOS1070,POJ1679)
p453
ssS'81b89222def78efad6cae289.html'
p454
(dp455
g3
V\u7c7b\u522b\uff1a\u7535\u8111\u6280\u672f
p456
sg5
V2009-07-29  16:43
p457
sg7
V\u000a\u000aBrainFuck\uff08\u4e8c\uff09\u6587\u4ef6\u5173\u8054
p458
ssS'28eb2b3f7b58d1e555e7232e.html'
p459
(dp460
g3
V\u7c7b\u522b\uff1a\u7b97\u6cd5
p461
sg5
V2009-08-11  15:57
p462
sg7
V\u000a\u000aLCA-tarjan(POJ1470)
p463
ssS'93ccc5fc7097088eb801a013.html'
p464
(dp465
g3
V\u7c7b\u522b\uff1a\u7f51\u5740\u6536\u96c6
p466
sg5
V2010-04-28  10:46
p467
sg7
V\u000a\u000agoogle &#34;related&#34; and &#34;prc report&#34;
p468
ssS'dcfb788b3566fd1cc9fc7a0a.html'
p469
(dp470
g3
V\u7c7b\u522b\uff1a\u6742\u724c\u5c0f\u8bb0
p471
sg5
V2010-09-12  01:42
p472
sg7
V\u000a\u000aInception\uff0c\u6000\u7591\u8bba
p473
ssS'1bacf81fb48a4170f724e4e4.html'
p474
(dp475
g3
V\u7c7b\u522b\uff1a\u7535\u8111\u6280\u672f
p476
sg5
V2011-01-23  15:20
p477
sg7
V\u000a\u000a\u6d4b\u8bd5\uff1f\u504f\u65b9\uff1f
p478
ssS'd916c9ce0ae70d0b93457e69.html'
p479
(dp480
g3
V\u7c7b\u522b\uff1aScm
p481
sg5
V2009-06-07  12:56
p482
sg7
V\u000a\u000a\u7528ROM\u81ea\u5236ALU\uff08proteus\uff0cvc\uff0c27c512)
p483
ssS'ede9984524881f3787947397.html'
p484
(dp485
g3
V\u7c7b\u522b\uff1aMath
p486
sg5
V2009-05-23  15:10
p487
sg7
V\u000a\u000a\u4e09\u79cd\u5f02\u524d\u7f6e\u7f16\u7801\uff08\u9999\u519c\u7f16\u7801\uff0c\u8d39\u8bfa\u7f16\u7801\uff0c\u54c8\u592b\u66fc\u7f16\u7801\uff09\uff08+MATLAB\u7a0b\u5e8f)
p488
ssS'72cd68d09fee2583a1ec9c80.html'
p489
(dp490
g3
V\u7c7b\u522b\uff1ac&#47;c++
p491
sg5
V2010-05-14  11:13
p492
sg7
V\u000a\u000a\u521d\u59cb\u5316\u7c7b\u4e2d\u5f15\u7528\u578b\u7684\u6210\u5458\u53d8\u91cf\uff08VC6.C2758\uff09
p493
ssS'b8eb4608b87f25950b7b8200.html'
p494
(dp495
g3
V\u7c7b\u522b\uff1aoi\u6863\u6848
p496
sg5
V2006-10-14  23:27
p497
sg7
V\u000a\u000avijos-1025
p498
ssS'c5d58d942f014813d31b70de.html'
p499
(dp500
g3
V\u7c7b\u522b\uff1ac&#47;c++
p501
sg5
V2010-06-18  21:12
p502
sg7
V\u000a\u000aC\u4e2d\u7684Trigraphs
p503
ssS'18c9d75455c51d54d00906e5.html'
p504
(dp505
g3
V\u7c7b\u522b\uff1a\u7535\u8111\u6280\u672f
p506
sg5
V2010-05-02  16:11
p507
sg7
V\u000a\u000aExcel\u505a\u7ebf\u6027\u89c4\u5212
p508
ssS'b89d331235eec240f919b895.html'
p509
(dp510
g3
V\u7c7b\u522b\uff1a\u6742\u724c\u5c0f\u8bb0
p511
sg5
V2010-12-09  11:59
p512
sg7
V\u000a\u000a\u5e1d\u90fd\u9171\u6cb9\u8bb0\uff1f\uff01\uff08\u5341\uff09--\u6742\u788e
p513
ssS'8fbb05b39d1506aad8335a4c.html'
p514
(dp515
g3
V\u7c7b\u522b\uff1aEnglish
p516
sg5
V2010-06-23  09:35
p517
sg7
V\u000a\u000aThe Final Exam
p518
ssS'39d21530668cc392a8018efa.html'
p519
(dp520
g3
V\u7c7b\u522b\uff1a\u7f51\u5740\u6536\u96c6
p521
sg5
V2010-01-25  10:14
p522
sg7
V\u000a\u000aa computer vision and machine learning site
p523
ssS'1bbfb919b5f23a5f42a9ad5f.html'
p524
(dp525
g3
V\u7c7b\u522b\uff1a\u6742\u724c\u5c0f\u8bb0
p526
sg5
V2011-07-22  01:56
p527
sg7
V\u000a\u000a\u73b0\u5728\u7684\u4e3b\u8981\u77db\u76fe\u662f\u4ec0\u4e48\uff1f
p528
ssS'94dfefdd94dc95fd77c638ad.html'
p529
(dp530
g3
V\u7c7b\u522b\uff1a\u7535\u8111\u6280\u672f
p531
sg5
V2010-12-24  00:26
p532
sg7
V\u000a\u000acrlf\uff0cgtalk\u591a\u5f00\uff0cbash\u5386\u53f2\uff0cword\u8bed\u97f3
p533
ssS'3ec4b338624735dfd462257b.html'
p534
(dp535
g3
V\u7c7b\u522b\uff1a\u6742\u724c\u5c0f\u8bb0
p536
sg5
V2011-11-25  23:24
p537
sg7
V\u000a\u000a\u8bf4\u4e0b\u82f1\u8bed\u53e3\u8bed
p538
ssS'7cc8454a65c1a22408f7ef33.html'
p539
(dp540
g3
V\u7c7b\u522b\uff1a\u4e4c\u4e03\u516b\u7cdf\u7684\u4e00\u4e9b\u4e8b
p541
sg5
V2009-02-15  13:39
p542
sg7
V\u000a\u000aMASM\u4e2d\u5173\u4e8e\u5c3a\u5bf8\u7684\u4e00\u4e9b\u7f16\u8bd1\u671f\u91cf
p543
ssS'34c7de2ab9138581023bf648.html'
p544
(dp545
g3
V\u7c7b\u522b\uff1a\u6742\u724c\u5c0f\u8bb0
p546
sg5
V2011-07-30  00:54
p547
sg7
V\u000a\u000a723\u52a8\u8f66\u4e8b\u4ef6\u4e2d\u51e0\u4e2a\u6280\u672f\u6027\u786c\u4f24
p548
ssS'1b9108082c56b1c863d986c2.html'
p549
(dp550
g3
V\u7c7b\u522b\uff1a\u6742\u724c\u5c0f\u8bb0
p551
sg5
V2011-07-03  00:42
p552
sg7
V\u000a\u000a\u3010\u4e8c\u4eba\u8f6c\u3011\u7559\u5b66\uff1f\uff1f
p553
ssS'a7ea30f386b87958342acc56.html'
p554
(dp555
g3
V\u7c7b\u522b\uff1a\u7b97\u6cd5
p556
sg5
V2009-04-29  16:12
p557
sg7
V\u000a\u000aLSB\u6570\u5b57\u6c34\u5370\u548c\u4fe1\u606f\u9690\u85cf
p558
ssS'c0e3b9def143f850cdbf1ad7.html'
p559
(dp560
g3
V\u7c7b\u522b\uff1aScm
p561
sg5
V2009-03-17  14:50
p562
sg7
V\u000a\u000aKEIL C \u7f16\u8bd1\u7684TRICK\u63a2\u7a765\uff08\u88ab\u5ffd\u7565\u768416\u4f4d\u8fd0\u7b97\u5668\uff09
p563
ssS'5ea02aa432acbfe79152eeee.html'
p564
(dp565
g3
V\u7c7b\u522b\uff1a\u7535\u8111\u6280\u672f
p566
sg5
V2010-11-21  15:25
p567
sg7
V\u000a\u000a[ff\u63d2\u4ef6]GreaseMonkey(qsh\u5185\u5916\u7f51\u5740\u66ff\u6362\u7684\u4f8b\u5b50)
p568
ssS'34c7de2a9883a692023bf6cf.html'
p569
(dp570
g3
V\u7c7b\u522b\uff1a\u7f51\u5740\u6536\u96c6
p571
sg5
V2009-08-03  21:18
p572
sg7
V\u000a\u000aBrainFuck\uff08\u4e09\uff09\u8d44\u6599\u7f51\u7ad9
p573
ssS'b8eb46088bb7349d0b7b82c0.html'
p574
(dp575
g3
V\u7c7b\u522b\uff1a\u4e4c\u4e03\u516b\u7cdf\u7684\u4e00\u4e9b\u4e8b
p576
sg5
V2009-03-17  14:22
p577
sg7
V\u000a\u000a\u56e7\u6b7b\u4eba\u7684\u7f51\u7edc\u4ee3\u7801\uff08\u6211\u89c1\u8fc7\u7684\u6700\u7ecf\u5178\u7684\u4e00\u4e2a\uff09
p578
ssS'8420dbc8e9aa92197e3e6f40.html'
p579
(dp580
g3
V\u7c7b\u522b\uff1a\u6742\u724c\u5c0f\u8bb0
p581
sg5
V2010-09-19  00:34
p582
sg7
V\u000a\u000a\u5c71\u6942\u6811\u4e4b\u604b--\u60c5\u7406\u4e4b\u4e2d\uff0c\u610f\u6599\u4e4b\u5916
p583
ssS'a8f8c2fcd78266f1fd037f26.html'
p584
(dp585
g3
V\u7c7b\u522b\uff1a.net&#47;c#&#47;sql
p586
sg5
V2010-05-09  16:06
p587
sg7
V\u000a\u000a\u53ef\u6267\u884c\u6587\u4ef6\u66ff\u6362\u81ea\u8eab(C#)
p588
ssS'd8001fcefee35531b700c847.html'
p589
(dp590
g3
V\u7c7b\u522b\uff1a\u4e4c\u4e03\u516b\u7cdf\u7684\u4e00\u4e9b\u4e8b
p591
sg5
V2009-04-22  20:34
p592
sg7
V\u000a\u000aSTL\u58f0\u660e\u987a\u5e8f\u4e0e\u504f\u7279\u5316\u5b58\u5728\u7684\u95ee\u9898(VC6.error C2011)
p593
ssS'52fc6722a96262ae4723e879.html'
p594
(dp595
g3
V\u7c7b\u522b\uff1aNetwork
p596
sg5
V2009-10-06  22:05
p597
sg7
V\u000a\u000a\u70b9\u5230\u70b9\u94fe\u8def\u7684\u4e09\u79cdIP\u5206\u914d\u6280\u672f
p598
ssS'2210888bc6efe8c9fc1f1091.html'
p599
(dp600
g3
V\u7c7b\u522b\uff1a\u6742\u724c\u5c0f\u8bb0
p601
sg5
V2011-07-14  17:38
p602
sg7
V\u000a\u000a\u65f6\u95f4\uff0c\u6765\u6247\u4e00\u4e2a\u6c89\u91cd\u7684\u8033\u5149
p603
ssS'3f37a9ccc1a8261100e92839.html'
p604
(dp605
g3
V\u7c7b\u522b\uff1a\u9ed8\u8ba4\u5206\u7c7b
p606
sg5
V2007-05-18  21:24
p607
sg7
V\u000a\u000a\u4ece\u535a\u5ba2\u4e2d\u53d7\u76ca
p608
ssS'2b193087c7c52a2ac75cc31b.html'
p609
(dp610
g3
V\u7c7b\u522b\uff1a\u6742\u724c\u5c0f\u8bb0
p611
sg5
V2006-09-09  09:40
p612
sg7
V\u000a\u000a\u4f4f\u6821N\u5929...
p613
ssS'6ed46d090b8e9bc43ac763cd.html'
p614
(dp615
g3
V\u7c7b\u522b\uff1a\u6742\u724c\u5c0f\u8bb0
p616
sg5
V2010-03-08  13:42
p617
sg7
V\u000a\u000a\u3010\u7f8e\u4e3d\u7684\u9519\u8bef\u3011\uff08\u516d\uff09\u4e00\u5f00\u59cb\u5c31\u7ed3\u675f
p618
ssS'c8d9c295b45cd840d0135e70.html'
p619
(dp620
g3
V\u7c7b\u522b\uff1aLinux
p621
sg5
V2010-01-22  21:13
p622
sg7
V\u000a\u000a\u5237\u9898\u6d4b\u8bd5\u7684\u5386\u53f2\uff08\u9644\u4e00\u4e2alinux\u5237\u9898\u7528\u811a\u672c\uff09
p623
ssS'0ba65b0f469149226159f33f.html'
p624
(dp625
g3
V\u7c7b\u522b\uff1aMath
p626
sg5
V2009-05-05  18:37
p627
sg7
V\u000a\u000a\u52a0\u6743\u8ddd\u79bb\u548c\u5f0f\u7684\u5355\u5cf0\u8bc1\u660e\u53ca\u6781\u503c\u6c42\u6cd5
p628
ssS'963c2d7f7d4b240229388a3d.html'
p629
(dp630
g3
V\u7c7b\u522b\uff1aMath
p631
sg5
V2009-09-24  16:38
p632
sg7
V\u000a\u000a\u5c0f\u65f6\u5019\u73a9\u8ba1\u7b97\u5668\u7684\u6781\u9650
p633
ssS'd8d77acff5ed7e36f9dc6144.html'
p634
(dp635
g3
V\u7c7b\u522b\uff1aEnglish
p636
sg5
V2010-03-04  20:10
p637
sg7
V\u000a\u000a\u3010comments\u3011\u201cJust in case\u201d versus \u201cjust in time\u201d
p638
ssS'94dfefdd241225e576c6389c.html'
p639
(dp640
g3
V\u7c7b\u522b\uff1a\u7535\u8111\u6280\u672f
p641
sg5
V2009-11-16  22:46
p642
sg7
V\u000a\u000a\u5b8c\u5168\u5b89\u88c5VS2008\u60c5\u51b5\u4e0bSQL SERVER 2005\u7684\u5b89\u88c5
p643
ssS'71b32f2d3679773d359bf723.html'
p644
(dp645
g3
V\u7c7b\u522b\uff1aVc
p646
sg5
V2009-07-17  17:55
p647
sg7
V\u000a\u000a\u7b2c\u4e00\u4e2aDirectX\u7a0b\u5e8f
p648
ssS'47a498588359f1d59d820421.html'
p649
(dp650
g3
V\u7c7b\u522b\uff1a\u6742\u724c\u5c0f\u8bb0
p651
sg5
V2010-01-05  12:05
p652
sg7
V\u000a\u000a\u6700\u8fd1\u7684\u591a\u5a92\u4f53\u7410\u5c51
p653
ssS'2b6de35041ba1c5b1138c2e6.html'
p654
(dp655
g3
V\u7c7b\u522b\uff1aVb
p656
sg5
V2009-02-11  11:47
p657
sg7
V\u000a\u000a\u5168\u5c40\u5feb\u6377\u952e+\u663e\u9690\u7a97\u53e3\uff08VB)
p658
ssS'c5d58d9421354613d31b708a.html'
p659
(dp660
g3
V\u7c7b\u522b\uff1aNetwork
p661
sg5
V2010-06-20  21:35
p662
sg7
V\u000a\u000a\u89e3\u6790IP\u5934\u7684demo
p663
ssS'01d25943a2534b1a9213c6f3.html'
p664
(dp665
g3
V\u7c7b\u522b\uff1ac&#47;c++
p666
sg5
V2010-03-13  13:54
p667
sg7
V\u000a\u000aAn Interesting &#34;Hello World&#34; in C++
p668
ssS'c0a9a74b66b356f883025cf6.html'
p669
(dp670
g3
V\u7c7b\u522b\uff1aScm
p671
sg5
V2009-03-15  17:06
p672
sg7
V\u000a\u000a74LS164\u5b9e\u73b0\u95ed\u73af\u903b\u8f91\u63a2\u9488\u6d41\u6c34\u706f
p673
ssS'8d68db58fbb80d89800a189d.html'
p674
(dp675
g3
V\u7c7b\u522b\uff1aScm
p676
sg5
V2009-04-09  20:27
p677
sg7
V\u000a\u000a\u7f16\u7801\u5668\u77e9\u9635\u952e\u76d8\uff08\u4e94\uff09\u6d4b\u8bd5\u4fe1\u53f7\u7684\u4ea7\u751f\uff0874LS373)\uff08\u8981\u6ce8\u610f\u7684hazard,glitch,race condition)
p678
ssS'4804376dd1e712f142169475.html'
p679
(dp680
g3
V\u7c7b\u522b\uff1aVc
p681
sg5
V2009-11-09  20:27
p682
sg7
V\u000a\u000a\uff03line\uff08VC6\uff09
p683
ssS'ede99845db316435869473c9.html'
p684
(dp685
g3
V\u7c7b\u522b\uff1ac&#47;c++
p686
sg5
V2009-11-15  14:55
p687
sg7
V\u000a\u000aC\u7684\u77e9\u9635\u8fd0\u7b97\u5e93CLAPACK\uff08VC6\uff09
p688
ssS'9b68b301cdf09a0a728da530.html'
p689
(dp690
g3
V\u7c7b\u522b\uff1a\u6742\u724c\u5c0f\u8bb0
p691
sg5
V2009-07-22  10:32
p692
sg7
V\u000a\u000a\u3010\u5404\u79cd\u6559\u5506\u3011\u8ddf\u5b66\u5f1f\u5b66\u59b9\u4eec\u8c08\u8c08\u5927\u5b66\u7684\u7ade\u8d5b
p693
ssS'8637ab4470ee268bb3b7dcaa.html'
p694
(dp695
g3
V\u7c7b\u522b\uff1ac&#47;c++
p696
sg5
V2009-07-28  16:51
p697
sg7
V\u000a\u000aassert\u7528\u6cd5\uff0c\u539f\u7406\uff0c\u6539\u7f16\uff08C++)
p698
ssS'91e013d8980cc93832fa1c4d.html'
p699
(dp700
g3
V\u7c7b\u522b\uff1a\u6742\u724c\u5c0f\u8bb0
p701
sg5
V2010-07-08  15:28
p702
sg7
V\u000a\u000a\u5b9e\u9a8c\u5ba4\u5185\u90e8\u4ea4\u6d41\uff1a\u6587\u6863\u7f16\u5199\u548cword\u4f7f\u7528
p703
ssS'97f23c7a586c31e52f73b3af.html'
p704
(dp705
g3
V\u7c7b\u522b\uff1a\u7535\u8111\u6280\u672f
p706
sg5
V2009-04-20  21:50
p707
sg7
V\u000a\u000ahplonline 3\u6708\u4efd\u7684\u8bbf\u95ee\u7edf\u8ba1\u6761\u5f62\u56fe\uff08\u8bd5\u73a9google API)
p708
ssS'56fab3126100ccc2c2fd7896.html'
p709
(dp710
g3
V\u7c7b\u522b\uff1aNetwork
p711
sg5
V2010-03-20  21:11
p712
sg7
V\u000a\u000a\u3010PacketTracer\u3011IPsec\u5b9e\u9a8c\uff0c\u8fde\u63a5\u5b50\u7f51\u7684VPN
p713
ssS'8cfcf7fa610942d7b58f3128.html'
p714
(dp715
g3
V\u7c7b\u522b\uff1aNetwork
p716
sg5
V2009-08-13  19:26
p717
sg7
V\u000a\u000aBoson NetSim\u8f6f\u4ef6\uff08\u9644Stand Alone Lab\u7b14\u8bb0\uff09
p718
ssS'8420dbc8d59cfe1f7e3e6f68.html'
p719
(dp720
g3
V\u7c7b\u522b\uff1aScm
p721
sg5
V2009-03-22  22:48
p722
sg7
V\u000a\u000aPWM\u548c\u8c03\u538b\u6cd5\u5bf9\u76f4\u6d41\u7535\u673a\u7684\u63a7\u5236
p723
ssS'c14806f4f4c257e77709d706.html'
p724
(dp725
g3
V\u7c7b\u522b\uff1ac&#47;c++
p726
sg5
V2009-05-04  20:06
p727
sg7
V\u000a\u000a\u67d0\u4e2aC\u4f18\u5316\u7b14\u8bb0\u7684\u8bfb\u540e\u7b14\u8bb0
p728
ssS'93e850af99ede8f9faed50aa.html'
p729
(dp730
g3
V\u7c7b\u522b\uff1a\u6742\u724c\u5c0f\u8bb0
p731
sg5
V2007-08-03  14:03
p732
sg7
V\u000a\u000a\u8fd9\u4e16\u9053\uff0c\u5565\u90fd\u5728\u53d8
p733
ssS'e936db003d99e11a738b6549.html'
p734
(dp735
g3
V\u7c7b\u522b\uff1aMatlab
p736
sg5
V2009-12-28  20:22
p737
sg7
V\u000a\u000aFFT\u76f8\u5173\uff08\u4e09\uff09\uff08MATLAB\uff09\uff08\u4efb\u610f\u57faDIT\u9012\u5f52\u5b9e\u73b0)
p738
ssS'7333f8d3bfd13fdfa8ec9a8c.html'
p739
(dp740
g3
V\u7c7b\u522b\uff1aoi\u6863\u6848
p741
sg5
V2006-10-02  14:26
p742
sg7
V\u000a\u000avijos-1033
p743
ssS'b0aea734073a4dadd1a2d3d9.html'
p744
(dp745
g3
V\u7c7b\u522b\uff1a\u6742\u724c\u5c0f\u8bb0
p746
sg5
V2011-08-21  20:03
p747
sg7
V\u000a\u000a\u9676\u7b1bABC
p748
ssS'72cd68d089320f84a1ec9c43.html'
p749
(dp750
g3
V\u7c7b\u522b\uff1a\u7f51\u5740\u6536\u96c6
p751
sg5
V2010-02-05  19:12
p752
sg7
V\u000a\u000aMIT Open Course Ware
p753
ssS'a8f8c2fc9100a4f5fd037fa4.html'
p754
(dp755
g3
V\u7c7b\u522b\uff1ac&#47;c++
p756
sg5
V2009-04-12  15:33
p757
sg7
V\u000a\u000aC++\u7c7b\u578b\u8f6c\u6362(static_cast,reinterpret_cast)
p758
ssS'bcde5382a57697aa0df4d2d7.html'
p759
(dp760
g3
V\u7c7b\u522b\uff1a\u7f51\u5740\u6536\u96c6
p761
sg5
V2009-03-29  21:46
p762
sg7
V\u000a\u000a&#60;the secret&#62; \u300a\u5438\u5f15\u5b9a\u5f8b\u300b
p763
ssS'6267a377b77cda15b151b903.html'
p764
(dp765
g3
V\u7c7b\u522b\uff1a\u6742\u724c\u5c0f\u8bb0
p766
sg5
V2010-09-22  16:53
p767
sg7
V\u000a\u000a\u201c\u7ee7\u7eed\u8d70\uff0c\u7ee7\u7eed\u5931\u53bb\uff0c\u5728\u6211\u6ca1\u6709\u610f\u8bc6\u5230\u7684\u9752\u6625\u201d
p768
ssS'c14806f4a2d705e77709d709.html'
p769
(dp770
g3
V\u7c7b\u522b\uff1a\u7b97\u6cd5
p771
sg5
V2009-05-24  19:38
p772
sg7
V\u000a\u000a\u7ea2\u9ed1\u6811\uff08RBTree\uff09\u7684\u4e00\u4e2a\u5b9e\u73b0
p773
ssS'9361ac1e3dbbf11540341738.html'
p774
(dp775
g3
V\u7c7b\u522b\uff1a\u90a3\u4e9b\u4e66
p776
sg5
V2009-09-15  15:57
p777
sg7
V\u000a\u000a\u300a\u6b63\u5219\u8868\u8fbe\u5f0f\u5fc5\u77e5\u5fc5\u4f1a\u300b\uff08\u9644\u7b14\u8bb0\u3001\u4e00\u79cd\u5339\u914d\u8bed\u8a00\u7684\u60f3\u6cd5\uff09
p778
ssS'2739df39469960fb3b87cee8.html'
p779
(dp780
g3
V\u7c7b\u522b\uff1a\u7b97\u6cd5
p781
sg5
V2009-04-06  21:26
p782
sg7
V\u000a\u000aFFT\u4f18\u5316\u7684\u9ad8\u7cbe\u5ea6\u4e58\u6cd5\uff08\u4e09\uff09\u5b9e\u73b0\u9ad8\u7cbe\u5ea6\u4e58\u6cd5
p783
ssS'1d19ddcab6506e42f31fe7ee.html'
p784
(dp785
g3
V\u7c7b\u522b\uff1aEnglish
p786
sg5
V2008-01-30  23:40
p787
sg7
V\u000a\u000ano.2(get-togthers)
p788
ssS'4411b8fb063b8c2a4e4aea44.html'
p789
(dp790
g3
V\u7c7b\u522b\uff1a\u7535\u8111\u6280\u672f
p791
sg5
V2009-06-01  09:44
p792
sg7
V\u000a\u000atopcoder arena\u7684\u63d2\u4ef6\u548c/room\u547d\u4ee4
p793
ssS'c0e3b9dec8269355cdbf1aff.html'
p794
(dp795
g3
V\u7c7b\u522b\uff1a\u6742\u724c\u5c0f\u8bb0
p796
sg5
V2010-06-22  18:27
p797
sg7
V\u000a\u000a\u4ec0\u4e48\u662f\u6807\u51c6\uff1f
p798
ssS'8420dbc8dfd6f81f7e3e6f26.html'
p799
(dp800
g3
V\u7c7b\u522b\uff1ac&#47;c++
p801
sg5
V2009-03-20  20:16
p802
sg7
V\u000a\u000a\u8d85\u524d\u5f15\u7528\u53ca\u91cd\u8981\u6ce8\u610f\u4e8b\u9879\uff08C++\uff09(error C2079)(VC6)
p803
ssS'e3395d2c7f5700fc8b1399e7.html'
p804
(dp805
g3
V\u7c7b\u522b\uff1aoi\u6863\u6848
p806
sg5
V2010-11-20  11:39
p807
sg7
V\u000a\u000a\u4f60\u4eec\u6f0f\u7684\u4e0d\u4ec5\u4ec5\u662f\u9898
p808
ssS'8fc50d08b6a27538e82488e9.html'
p809
(dp810
g3
V\u7c7b\u522b\uff1ac&#47;c++
p811
sg5
V2009-04-13  19:32
p812
sg7
V\u000a\u000amutable(c++)
p813
ssS'ea18b81189398a75cb80c47b.html'
p814
(dp815
g3
V\u7c7b\u522b\uff1a\u6742\u724c\u5c0f\u8bb0
p816
sg5
V2010-01-02  14:02
p817
sg7
V\u000a\u000a2009\u7684\u6d41\u6c34\u8d26
p818
ssS'f8ceb299ae9349006f068ce0.html'
p819
(dp820
g3
V\u7c7b\u522b\uff1aScm
p821
sg5
V2009-03-01  21:51
p822
sg7
V\u000a\u000aKEIL C \u7f16\u8bd1\u7684TRICK\u63a2\u7a762\uff08int\u7c7b\u578b\uff09
p823
ssS'93e850af153a64f7faed504f.html'
p824
(dp825
g3
V\u7c7b\u522b\uff1a\u6742\u724c\u5c0f\u8bb0
p826
sg5
V2010-03-31  13:24
p827
sg7
V\u000a\u000a\u3010\u622a\u56fe\u3011\u5927\u5b66\u751f\u6751\u5b98
p828
ssS'add4bb3559feb680a61e129d.html'
p829
(dp830
g3
V\u7c7b\u522b\uff1aMatlab
p831
sg5
V2009-12-31  14:42
p832
sg7
V\u000a\u000anerd\u7684\u7b80\u6613\u5236\u8c31\u683c\u5f0f\uff08\u4e00\uff09\u7f18\u7531\u53ca\u7a0b\u5e8f\u548c\u793a\u4f8b\u4e0b\u8f7d
p833
ssS'181d9a52a8158f020df3e34a.html'
p834
(dp835
g3
V\u7c7b\u522b\uff1aNetwork
p836
sg5
V2010-06-03  21:25
p837
sg7
V\u000a\u000a\u7b80\u6613\u5b57\u7b26\u4e32\u670d\u52a1\u5668\u6846\u67b6\uff08SOCKET select\uff09
p838
ssS'1b3b68d991b3e52110df9b3c.html'
p839
(dp840
g3
V\u7c7b\u522b\uff1a\u6742\u724c\u5c0f\u8bb0
p841
sg5
V2010-07-25  16:41
p842
sg7
V\u000a\u000a\u6863\u6848\u9986\u7684\u90a3\u4e9b\u4e8b(Archive of UESTC\uff09
p843
ssS'a23496827f5325b86c811999.html'
p844
(dp845
g3
V\u7c7b\u522b\uff1ac&#47;c++
p846
sg5
V2009-02-17  16:34
p847
sg7
V\u000a\u000a\u4f18\u5148\u7ea7\u554a\u4f18\u5148\u7ea7\uff08C\uff09
p848
ssS'13e271f4b89c03d5f3d38520.html'
p849
(dp850
g3
V\u7c7b\u522b\uff1a\u6742\u724c\u5c0f\u8bb0
p851
sg5
V2010-04-17  15:09
p852
sg7
V\u000a\u000a\u5927\u5b66\u751f--\u4e3a\u65f6\u95f4\u8282\u70b9\u800c\u5de5\u4f5c\u7684\u4eba\u7fa4
p853
ssS'0c7f007bf4c160f80bd187a4.html'
p854
(dp855
g3
V\u7c7b\u522b\uff1aEnglish
p856
sg5
V2010-03-24  19:32
p857
sg7
V\u000a\u000aGrand Tour, Gap Year
p858
ssS'bca1db13f212de095baf53b3.html'
p859
(dp860
g3
V\u7c7b\u522b\uff1aMatlab
p861
sg5
V2010-01-14  15:53
p862
sg7
V\u000a\u000a\u4fe1\u9053\u5747\u8861\u7684\u4e00\u4e2aMATLAB\u4eff\u771f\u5b9e\u9a8c
p863
ssS'a2f1ba51cc844011377abef5.html'
p864
(dp865
g3
V\u7c7b\u522b\uff1a\u6742\u724c\u5c0f\u8bb0
p866
sg5
V2009-08-20  22:22
p867
sg7
V\u000a\u000a\u3010impossible.\u5934\u8111\u75af\u4e86\u7cfb\u5217.4\u3011\u8fdb\u5316\u7684\u95ee\u9898
p868
ssS'bd4524dd0463bcd18c1029c6.html'
p869
(dp870
g3
V\u7c7b\u522b\uff1a\u7b97\u6cd5
p871
sg5
V2009-05-19  12:45
p872
sg7
V\u000a\u000aPOJ2524\uff08\u5e76\u67e5\u96c6\uff09
p873
ssS'8065aaec00ca46292797914a.html'
p874
(dp875
g3
V\u7c7b\u522b\uff1a\u6742\u724c\u5c0f\u8bb0
p876
sg5
V2011-02-20  19:46
p877
sg7
V\u000a\u000a\u9759\u7535
p878
ssS'1bbfb9194a4ffd4d42a9ad1a.html'
p879
(dp880
g3
V\u7c7b\u522b\uff1a\u7b97\u6cd5
p881
sg5
V2009-03-31  09:15
p882
sg7
V\u000a\u000aPOJ1405 \uff08Heritage\uff09 \uff08\u9012\u63a8+\u9ad8\u7cbe\u5ea6\uff09
p883
ssS'c0b2c6bf596ee40018d81f87.html'
p884
(dp885
g3
V\u7c7b\u522b\uff1a\u6742\u724c\u5c0f\u8bb0
p886
sg5
V2009-10-19  21:02
p887
sg7
V\u000a\u000a\u8bfb\u300a\u514d\u7528\u7b2c\u4e09\u53d8\u91cf\u7684\u4e24\u53d8\u91cf\u503c\u4ea4\u6362\u300b\u540e\u611f
p888
ssS'f6fb9aef629fc1e7cf1b3e2f.html'
p889
(dp890
g3
V\u7c7b\u522b\uff1a\u7b97\u6cd5
p891
sg5
V2009-04-11  22:37
p892
sg7
V\u000a\u000a\u57fa\u4e8e\u94fe\u8868\u7684o(nlogn)\u7ea7\u6392\u5e8f\uff08VC6.STL)
p893
ssS'b8068013d2d60bd8f6039e80.html'
p894
(dp895
g3
V\u7c7b\u522b\uff1ac&#47;c++
p896
sg5
V2009-04-13  14:38
p897
sg7
V\u000a\u000a__based(c++)
p898
ssS'e7ce6160b143fc40eaf8f83b.html'
p899
(dp900
g3
V\u7c7b\u522b\uff1a\u7f51\u5740\u6536\u96c6
p901
sg5
V2008-02-10  22:42
p902
sg7
V\u000a\u000a\u5927\u5b66\u751f\u5e94\u5e38\u53bb\u7684\u5341\u5927\u7f51
p903
ssS'b939f71f6dd8e00e314e15be.html'
p904
(dp905
g3
V\u7c7b\u522b\uff1aEnglish
p906
sg5
V2008-02-08  23:42
p907
sg7
V\u000a\u000ano.5(discovery)
p908
ssS'377d53ee0c68a7f3b2fb959c.html'
p909
(dp910
g3
V\u7c7b\u522b\uff1a\u7f51\u5740\u6536\u96c6
p911
sg5
V2009-06-07  18:34
p912
sg7
V\u000a\u000ahow stuff works?
p913
ssS'a8eb40906e002f80a977a49f.html'
p914
(dp915
g3
V\u7c7b\u522b\uff1a\u6742\u724c\u5c0f\u8bb0
p916
sg5
V2010-06-29  23:23
p917
sg7
V\u000a\u000a\u9632\u6b62\u9886\u5bfc\u5ff5\u9519\u5b57\u7684\u72e0\u62db
p918
ssS'76e3c33d6696a3cf9e3d622f.html'
p919
(dp920
g3
V\u7c7b\u522b\uff1aMath
p921
sg5
V2009-05-02  22:16
p922
sg7
V\u000a\u000a\u8499\u7279\u5361\u7f57\u6a21\u62df\u4e2d\u968f\u673a\u6570\u636e\u7684\u751f\u6210\uff08\u5206\u533a\u518d\u968f\u673a\uff0c\u7ebf\u6027\u63d2\u503c\uff0c\u4e09\u9636\u6837\u6761\u63d2\u503c\uff09\uff08MATLAB\uff09
p923
ssS'7a8a06336903a0f11b4cff5f.html'
p924
(dp925
g3
V\u7c7b\u522b\uff1aVc
p926
sg5
V2009-07-10  19:19
p927
sg7
V\u000a\u000a\u51e0\u79cd\u540c\u6b65\u624b\u6bb5\uff08\u4e92\u65a5\u91cf\uff0c\u4fe1\u53f7\u91cf\uff0c\u4e8b\u4ef6\uff0c\u4e34\u754c\u533a\uff09
p928
ssS'ba8e094fc9e4c33daec3ab6e.html'
p929
(dp930
g3
V\u7c7b\u522b\uff1aMatlab
p931
sg5
V2009-12-31  14:59
p932
sg7
V\u000a\u000anerd\u7684\u7b80\u6613\u5236\u8c31\u683c\u5f0f\uff08\u56db\uff09\u6548\u679c\u6f14\u793a\u53ca\u540e\u8bb0
p933
ssS'4804376dfac9c7f142169443.html'
p934
(dp935
g3
V\u7c7b\u522b\uff1a\u6742\u724c\u5c0f\u8bb0
p936
sg5
V2009-10-25  20:35
p937
sg7
V\u000a\u000a\u8bfb\u4e86\u674e\u5f00\u590d\u7684\u4e03\u5c01\u4fe1
p938
ssS'377d53ee2f7744f1b3fb956a.html'
p939
(dp940
g3
V\u7c7b\u522b\uff1a\u4e4c\u4e03\u516b\u7cdf\u7684\u4e00\u4e9b\u4e8b
p941
sg5
V2009-09-17  14:01
p942
sg7
V\u000a\u000afgets\u7684\u90a3\u70b9\u4e8b
p943
ssS'2410eccd2e97e05b0eb34576.html'
p944
(dp945
g3
V\u7c7b\u522b\uff1a\u6742\u724c\u5c0f\u8bb0
p946
sg5
V2009-10-29  08:41
p947
sg7
V\u000a\u000a\u5404\u4f4d\u957f\u671f\u5750\u7740\u7684\u540c\u5b66\u6ce8\u610f\u4e86\u54e6\u3002\u3002
p948
ssS'89c8780ec95dbdc27acbe1c5.html'
p949
(dp950
g3
V\u7c7b\u522b\uff1ac&#47;c++
p951
sg5
V2009-04-13  20:03
p952
sg7
V\u000a\u000aexplicit(c++)
p953
ssS'10033301392aec007aec2c69.html'
p954
(dp955
g3
V\u7c7b\u522b\uff1a\u6742\u724c\u5c0f\u8bb0
p956
sg5
V2010-09-17  00:44
p957
sg7
V\u000a\u000a\u8bf4\u5427
p958
ssS'72cd68d04bfbf187a1ec9c8f.html'
p959
(dp960
g3
V\u7c7b\u522b\uff1aScm
p961
sg5
V2009-04-09  20:04
p962
sg7
V\u000a\u000a\u7f16\u7801\u5668\u77e9\u9635\u952e\u76d8\uff08\u56db\uff09\u7f16\u7801\u90e8\u5206\uff0874LS148)
p963
ssS'a2f68d01653db8de267fb5cd.html'
p964
(dp965
g3
V\u7c7b\u522b\uff1a\u7b97\u6cd5
p966
sg5
V2009-03-26  20:23
p967
sg7
V\u000a\u000aPOJ1141\uff08Brackets Sequence\uff09\uff08DP)
p968
ssS'6ed46d09ae8b36c53ac763ce.html'
p969
(dp970
g3
V\u7c7b\u522b\uff1a\u90a3\u4e9b\u4e66
p971
sg5
V2009-10-08  16:26
p972
sg7
V\u000a\u000a\u300aC\u4e13\u5bb6\u7f16\u7a0b\u300b\uff08\u9644\u7b14\u8bb0\uff09
p973
ssS'f437ed11d24e41cda6ef3ff2.html'
p974
(dp975
g3
V\u7c7b\u522b\uff1aMatlab
p976
sg5
V2010-01-01  15:26
p977
sg7
V\u000a\u000aGoertzel\u7b97\u6cd5
p978
ssS'34f59fcac286328bc8176821.html'
p979
(dp980
g3
V\u7c7b\u522b\uff1a\u6742\u724c\u5c0f\u8bb0
p981
sg5
V2010-07-16  16:50
p982
sg7
V\u000a\u000a19C2BAA\uff0c\u6c89\u9ed8\u7684\u5b63\u8282
p983
ssS'fa2ebd45b40b742bcefca3ff.html'
p984
(dp985
g3
V\u7c7b\u522b\uff1ac&#47;c++
p986
sg5
V2010-08-16  22:15
p987
sg7
V\u000a\u000an\u7cfb\u5217\u51fd\u6570\u7a76\u7adf\u5b89\u5168\u5728\u54ea\u91cc\uff1f(snprintf,strncpy,fgets)
p988
ssS'9b68b3010756500e728da5da.html'
p989
(dp990
g3
V\u7c7b\u522b\uff1a\u6742\u724c\u5c0f\u8bb0
p991
sg5
V2010-07-21  19:29
p992
sg7
V\u000a\u000a\u3010impossible.\u5934\u8111\u75af\u4e86\u7cfb\u5217.10\u3011\u5956\u5b66\u91d1\u7684\u529e\u6cd5\u8c03\u6574
p993
ssS'9a3eb91ce5e5018386d6b6b3.html'
p994
(dp995
g3
V\u7c7b\u522b\uff1aMath
p996
sg5
V2009-05-06  20:31
p997
sg7
V\u000a\u000a\u6590\u6ce2\u90a3\u5951\u6570\u5217\u901a\u9879\u4e09\u79cd\u89e3\u6cd5\uff08\u666e\u901a\u6570\u5217\u89e3\u6cd5\uff0c\u7ebf\u6027\u4ee3\u6570\uff0c\u4fe1\u53f7\u4e0e\u7cfb\u7edf\uff09
p998
ssS'63e406f36e060cc30b46e0db.html'
p999
(dp1000
g3
V\u7c7b\u522b\uff1a\u7535\u8111\u6280\u672f
p1001
sg5
V2009-04-19  10:28
p1002
sg7
V\u000a\u000a\u4eb2\u5386\u56db\u5ddd\u8ba1\u7b97\u673a\u7b49\u7ea7\u4e09\u7ea7
p1003
ssS'47a498580e9006c49d8204fa.html'
p1004
(dp1005
g3
V\u7c7b\u522b\uff1a\u6742\u724c\u5c0f\u8bb0
p1006
sg5
V2011-07-31  11:57
p1007
sg7
V\u000a\u000a\u674e\u9633\u7684\u75af\u72c2\u82f1\u8bed
p1008
ssS'ecf54b34b9e94646241f14b1.html'
p1009
(dp1010
g3
V\u7c7b\u522b\uff1ac&#47;c++
p1011
sg5
V2009-04-18  21:31
p1012
sg7
V\u000a\u000aSTL\u7684\u6548\u7387\u7684\u611f\u53d7\u4ee5\u53ca\u6539\u8fdb\uff08\u6539\u53d8\u8fed\u4ee3\u5668\u6807\u5fd7\u4ee5\u8c03\u7528\u4e0d\u540c\u7b97\u6cd5\uff09\uff08VC6\u64cd\u4f5c\u5b9e\u8df5\uff09
p1013
ssS'c6c06a59e8d0a7212934f097.html'
p1014
(dp1015
g3
V\u7c7b\u522b\uff1a\u6742\u724c\u5c0f\u8bb0
p1016
sg5
V2010-01-22  15:04
p1017
sg7
V\u000a\u000a\u3010impossible.\u5934\u8111\u75af\u4e86\u7cfb\u5217.6\u3011\u8df3\u8d77\u6765\u5450\u558a\uff0c\u4f60\u7684\u6211\u7684\u5927\u5bb6\u7684\u6743\u5229
p1018
ssS'c0b2c6bf072dae0318d81ffb.html'
p1019
(dp1020
g3
V\u7c7b\u522b\uff1a\u6742\u724c\u5c0f\u8bb0
p1021
sg5
V2009-06-30  16:11
p1022
sg7
V\u000a\u000a\u6349\u895f\u89c1\u8098\u7684\u5206\u7c7b
p1023
ssS'1bbfb919aaa31d4d42a9ad3e.html'
p1024
(dp1025
g3
V\u7c7b\u522b\uff1ac&#47;c++
p1026
sg5
V2009-05-10  16:41
p1027
sg7
V\u000a\u000a\u8be1\u5f02\u7684\u7f16\u8bd1\u671f\u6c42\u503c
p1028
ssS'f437ed112bd2c8cea6ef3f54.html'
p1029
(dp1030
g3
V\u7c7b\u522b\uff1a\u4e4c\u4e03\u516b\u7cdf\u7684\u4e00\u4e9b\u4e8b
p1031
sg5
V2009-05-18  12:24
p1032
sg7
V\u000a\u000a\u62ec\u53f7\u5bf9\u5b8f\u5c55\u5f00\u7684\u5f71\u54cd
p1033
ssS'4411b8fb2f84d7234e4aea1a.html'
p1034
(dp1035
g3
V\u7c7b\u522b\uff1a\u6742\u724c\u5c0f\u8bb0
p1036
sg5
V2007-05-24  12:09
p1037
sg7
V\u000a\u000a\u4eba\u4f53\u751f\u7406\u66f2\u7ebf
p1038
ssS'c0eab0a169e3628246106481.html'
p1039
(dp1040
g3
V\u7c7b\u522b\uff1aVc
p1041
sg5
V2009-06-19  13:23
p1042
sg7
V\u000a\u000a\u63a7\u5236\u53f0\u4e0b\u6539\u53d8\u6587\u5b57\u989c\u8272
p1043
ssS'a23496824285c8b26d8119b0.html'
p1044
(dp1045
g3
V\u7c7b\u522b\uff1aNetwork
p1046
sg5
V2010-06-05  21:15
p1047
sg7
V\u000a\u000a\u7b80\u6613\u5b57\u7b26\u4e32\u534f\u8bae\u7684C/S\u6846\u67b6\uff08SOCKET select\uff09
p1048
ssS'6d3387101823680a203f2edb.html'
p1049
(dp1050
g3
V\u7c7b\u522b\uff1aLinux
p1051
sg5
V2010-01-10  14:05
p1052
sg7
V\u000a\u000agenerating RFC content with the help of VIM&#39;s plugins(taglist.vim+txt.vim)
p1053
ssS'72cd68d0be8d4285a1ec9ce7.html'
p1054
(dp1055
g3
V\u7c7b\u522b\uff1aNetwork
p1056
sg5
V2009-11-27  19:52
p1057
sg7
V\u000a\u000arip\u4e2d\u89e6\u53d1\u66f4\u65b0\u7684\u4e00\u70b9\u7ec6\u8282
p1058
ssS'5a11f1ed61451a4279f0557c.html'
p1059
(dp1060
g3
V\u7c7b\u522b\uff1a\u7535\u8111\u6280\u672f
p1061
sg5
V2010-06-10  19:17
p1062
sg7
V\u000a\u000a\u5728word2003\u4e2d\u53cd\u8272\u63a7\u5236\u53f0\u7a97\u53e3\u622a\u56fe\u7684\u53e6\u7c7b\u65b9\u6cd5\uff08\u56fe\u89e3\uff09
p1063
ssS'4411b8fb9c6d2a2b4e4aea0b.html'
p1064
(dp1065
g3
V\u7c7b\u522b\uff1aVc
p1066
sg5
V2009-07-09  14:21
p1067
sg7
V\u000a\u000a\u4f7f\u7528unrarlib\u89e3\u538brar\u6863\u6848--\u5305\u88c5\u4e00\u4e2a\u201c\u89e3\u538b\u5230XX\u6587\u4ef6\u5939\u201d\u7684\u51fd\u6570\uff08VC6)
p1068
ssS'1b910808b6294fda63d986b7.html'
p1069
(dp1070
g3
V\u7c7b\u522b\uff1a\u90a3\u4e9b\u4e66
p1071
sg5
V2010-01-06  15:40
p1072
sg7
V\u000a\u000a\u300a\u4e16\u754c\u56e0\u4f60\u4e0d\u540c\u300b
p1073
ssS'254254dfcf3e8001485403ef.html'
p1074
(dp1075
g3
V\u7c7b\u522b\uff1a\u7b97\u6cd5
p1076
sg5
V2010-12-31  00:26
p1077
sg7
V\u000a\u000a\u70b9\u7740\u8272\u7684\u5224\u5b9a\u95ee\u9898\u548c\u4f18\u5316\u95ee\u9898
p1078
ssS'57c903f74596cf2c730eecd9.html'
p1079
(dp1080
g3
V\u7c7b\u522b\uff1a\u6742\u724c\u5c0f\u8bb0
p1081
sg5
V2010-09-18  02:29
p1082
sg7
V\u000a\u000a\u8ddf\u4e00\u7fa4\u6210\u5e74\u4eba\u505a\u4e86\u4e00\u5929\u6e38\u620f
p1083
ssS'28f8b91b0207bf108718bf2e.html'
p1084
(dp1085
g3
V\u7c7b\u522b\uff1a\u7f51\u5740\u6536\u96c6
p1086
sg5
V2009-07-09  13:30
p1087
sg7
V\u000a\u000a\u8f6f\u4ef6\u8003\u53e4\u7684\u597d\u7f51versiones-anteriores
p1088
ssS'8fbb05b34d84d6afd8335af6.html'
p1089
(dp1090
g3
V\u7c7b\u522b\uff1a\u4e4c\u4e03\u516b\u7cdf\u7684\u4e00\u4e9b\u4e8b
p1091
sg5
V2009-05-01  12:23
p1092
sg7
V\u000a\u000amemset\u3002\u3002\u5c0f\u5fc3\u554a\uff0c
p1093
ssS'4411b8fbf4ba022f4e4aeac0.html'
p1094
(dp1095
g3
V\u7c7b\u522b\uff1a\u6742\u724c\u5c0f\u8bb0
p1096
sg5
V2010-07-06  00:03
p1097
sg7
V\u000a\u000a\u4e24\u5219\u5173\u4e8e\u8f66\u7684\u6bd4\u55bb
p1098
ssS'f11493256ac4ef6b35a80f8f.html'
p1099
(dp1100
g3
V\u7c7b\u522b\uff1aMath
p1101
sg5
V2010-02-15  13:59
p1102
sg7
V\u000a\u000aseveral demonstrations of dimension reduction
p1103
ssS'5243882603f73d198b82a160.html'
p1104
(dp1105
g3
V\u7c7b\u522b\uff1a\u7535\u8111\u6280\u672f
p1106
sg5
V2010-08-31  21:54
p1107
sg7
V\u000a\u000a\u83dc\u5355\u4e2d\u201c\u79fb\u52a8\u201d\u7684\u4f5c\u7528
p1108
ssS'a2f1ba51d1485701377abe31.html'
p1109
(dp1110
g3
V\u7c7b\u522b\uff1a\u6742\u724c\u5c0f\u8bb0
p1111
sg5
V2011-07-04  22:45
p1112
sg7
V\u000a\u000a\u300a\u6210\u7535\u98de\u8dc3\u624b\u518c1.0\u300b\u7a3f\u4ef6--hplonline
p1113
ssS'9361ac1ec55fc906403417eb.html'
p1114
(dp1115
g3
V\u7c7b\u522b\uff1a\u6742\u724c\u5c0f\u8bb0
p1116
sg5
V2011-06-22  00:13
p1117
sg7
V\u000a\u000a\u5927\u8fde\u4e09\u65e5--3--\u5e84\u6cb3
p1118
ssS'4f3587b1860c085d08230276.html'
p1119
(dp1120
g3
V\u7c7b\u522b\uff1a\u90a3\u4e9b\u4e66
p1121
sg5
V2009-07-07  10:29
p1122
sg7
V\u000a\u000a\u300a\u7075\u9b42\u7684\u4e8b\u300b
p1123
ssS'5de264066e5c9677030881a4.html'
p1124
(dp1125
g3
V\u7c7b\u522b\uff1aNetwork
p1126
sg5
V2010-05-06  22:11
p1127
sg7
V\u000a\u000aApache+Asp.Net\u7684\u57fa\u672c\u914d\u7f6e\u8bb0\u5f55
p1128
ssS'e9f38c18d978d7b54aedbc8a.html'
p1129
(dp1130
g3
V\u7c7b\u522b\uff1a\u6742\u724c\u5c0f\u8bb0
p1131
sg5
V2007-03-18  00:14
p1132
sg7
V\u000a\u000a\u5173\u4e8e\u535a
p1133
ssS'4411b8fbecb31a284e4aeafe.html'
p1134
(dp1135
g3
V\u7c7b\u522b\uff1ac&#47;c++
p1136
sg5
V2009-10-26  19:34
p1137
sg7
V\u000a\u000a\u4f20\u8bf4\u4e2d\u7231\u56e0\u65af\u5766\u7684\u9898\uff08\u66b4\u529b\u6cd5\uff09
p1138
ssS'04243cd31cd536083bf3cfbb.html'
p1139
(dp1140
g3
V\u7c7b\u522b\uff1a\u7f51\u5740\u6536\u96c6
p1141
sg5
V2009-04-23  08:39
p1142
sg7
V\u000a\u000aGOTW\uff08C++\u5b66\u4e60\u8d44\u6599\uff09
p1143
ssS'd8d77acf91bc9a24f9dc611a.html'
p1144
(dp1145
g3
V\u7c7b\u522b\uff1a\u6742\u724c\u5c0f\u8bb0
p1146
sg5
V2011-06-18  02:50
p1147
sg7
V\u000a\u000a\u5927\u8fde\u4e09\u65e5--1--\u884c\u7a0b&\u6742\u8bb0
p1148
ssS'c5c022344295ce305ab5f560.html'
p1149
(dp1150
g3
V\u7c7b\u522b\uff1aEnglish
p1151
sg5
V2010-02-25  18:11
p1152
sg7
V\u000a\u000a\u82f1\u8bed\u79d1\u6280\u8bba\u6587\u5199\u4f5c\u7684\u51e0\u4e2a\u7b14\u8bb0
p1153
ssS'6d338710c60c9a0c203f2eb9.html'
p1154
(dp1155
g3
V\u7c7b\u522b\uff1a\u6742\u724c\u5c0f\u8bb0
p1156
sg5
V2010-07-20  23:52
p1157
sg7
V\u000a\u000a\u56db\u5e7c\uff0c\u6de1\u51fa\u7684\u5ddd\u9505\u5e7c\u513f\u56ed
p1158
ssS'd7b61a381398eafeb311c7b5.html'
p1159
(dp1160
g3
V\u7c7b\u522b\uff1a\u6742\u724c\u5c0f\u8bb0
p1161
sg5
V2010-03-21  13:56
p1162
sg7
V\u000a\u000a\u3010\u5404\u79cd\u6559\u5506\u3011\u6587\u6863\u547d\u540d\u662f\u4e2a\u7d20\u8d28\u95ee\u9898
p1163
ssS'c0f979f03dd145afa50f52d9.html'
p1164
(dp1165
g3
V\u7c7b\u522b\uff1a\u7f51\u5740\u6536\u96c6
p1166
sg5
V2006-09-09  17:43
p1167
sg7
V\u000a\u000afor oiers
p1168
ssS'3695942fd6721e301e308909.html'
p1169
(dp1170
g3
V\u7c7b\u522b\uff1ac&#47;c++
p1171
sg5
V2009-03-22  18:56
p1172
sg7
V\u000a\u000a\u6570\u7ec4\u5f15\u7528\u7684\u8bed\u4e49\u53ca\u5e94\u7528
p1173
ssS'96ebab8bc92191729f2fb48b.html'
p1174
(dp1175
g3
V\u7c7b\u522b\uff1a\u6742\u724c\u5c0f\u8bb0
p1176
sg5
V2010-07-27  01:53
p1177
sg7
V\u000a\u000a\u5f53\u4f20\u7edf\u6587\u5316\u548c\u73b0\u4ee3\u516c\u5fb7\u51b2\u7a81\u7684\u65f6\u5019\uff1f
p1178
ssS'5b7afc03e4f3f77e3812bb16.html'
p1179
(dp1180
g3
V\u7c7b\u522b\uff1aVc
p1181
sg5
V2009-07-17  13:38
p1182
sg7
V\u000a\u000a\u8d34\u4e2awin32\u7a0b\u5e8f\u7684\u6700\u5c0f\u6846\u67b6\uff08VC6)
p1183
ssS'ede998451ee8213386947333.html'
p1184
(dp1185
g3
V\u7c7b\u522b\uff1a\u6742\u724c\u5c0f\u8bb0
p1186
sg5
V2010-06-01  19:23
p1187
sg7
V\u000a\u000a\u953b\u70bc\u8eab\u4f53\uff0c\u4fdd\u6301\u5fc3\u60c5\uff0c\u6de1\u5b9a
p1188
ssS'db6a6f38914a2a2f96ddd8f0.html'
p1189
(dp1190
g3
V\u7c7b\u522b\uff1aMath
p1191
sg5
V2010-05-16  10:58
p1192
sg7
V\u000a\u000a\u590d\u6570\u4e58\u6cd5\u7684\u4e24\u79cd\u5b9e\u73b0\uff084/2\uff0c3/3\uff09
p1193
ssS'c6c06a596fbe22212934f0ed.html'
p1194
(dp1195
g3
V\u7c7b\u522b\uff1a\u6742\u724c\u5c0f\u8bb0
p1196
sg5
V2010-03-12  13:05
p1197
sg7
V\u000a\u000a\u3010\u7d27\u6025\u53ec\u96c6\u3011\u5728\u5927\u4e00\u6216\u8005\u5927\u4e8c\u9009\u8fc7\u88c1\u5224\u8bfe\u7684\u540c\u5b66\u56e7\u4e86
p1198
ssS'13e271f413ee98d2f3d38551.html'
p1199
(dp1200
g3
V\u7c7b\u522b\uff1a\u6742\u724c\u5c0f\u8bb0
p1201
sg5
V2010-03-13  17:22
p1202
sg7
V\u000a\u000a\u622a\u4e24\u4e2a\u56fe\u52a0\u8bc4\u8bba
p1203
ssS'273b252ed931895b4fc2269a.html'
p1204
(dp1205
g3
V\u7c7b\u522b\uff1aMatlab
p1206
sg5
V2009-12-19  21:14
p1207
sg7
V\u000a\u000aDSP\u7684MATLAB\u7ec3\u4e60\u9898
p1208
ssS'4411b8fb3e57c4384e4aea22.html'
p1209
(dp1210
g3
V\u7c7b\u522b\uff1a\u6742\u724c\u5c0f\u8bb0
p1211
sg5
V2011-07-28  01:42
p1212
sg7
V\u000a\u000a\u6709\u5e8f\u65e0\u5e8f\u7684\u5b97\u6559\u5b58\u5728\u8bba
p1213
ssS'b10602fa56ae3f9f58ee90e1.html'
p1214
(dp1215
g3
V\u7c7b\u522b\uff1aScm
p1216
sg5
V2009-03-10  17:12
p1217
sg7
V\u000a\u000a74LS165\u4e32\u884c\u8f93\u5165
p1218
ssS'b0aea7345c08eabed1a2d319.html'
p1219
(dp1220
g3
V\u7c7b\u522b\uff1a\u4e4c\u4e03\u516b\u7cdf\u7684\u4e00\u4e9b\u4e8b
p1221
sg5
V2009-07-15  14:10
p1222
sg7
V\u000a\u000a\u5927\u62ec\u53f7\u914d\u5bf9\u7684\u95ee\u9898(VC6.fatal error C1004)
p1223
ssS'39d21530f6ad5395a8018ee4.html'
p1224
(dp1225
g3
V\u7c7b\u522b\uff1aEnglish
p1226
sg5
V2010-05-29  21:39
p1227
sg7
V\u000a\u000aThe One Who Dare to Succeed = Who Dare to Fail!
p1228
ssS'967eaec25aac48090ff477ca.html'
p1229
(dp1230
g3
V\u7c7b\u522b\uff1a\u7b97\u6cd5
p1231
sg5
V2011-01-08  00:46
p1232
sg7
V\u000a\u000aMapReduce\u4e0b\u7684\u5206\u5e03\u5f0f\u6392\u5e8f
p1233
ssS'86e03a4ec9c42fd0d0c86a84.html'
p1234
(dp1235
g3
V\u7c7b\u522b\uff1a\u6742\u724c\u5c0f\u8bb0
p1236
sg5
V2011-08-01  22:38
p1237
sg7
V\u000a\u000a\u67f3\u6c5f\u53e4\u9547-\u74e6\u5c4b\u5c71\u4e24\u65e5\u6e38\uff08from\u6210\u90fd\uff09
p1238
ssS'96aee1f811036102d8f9fd22.html'
p1239
(dp1240
g3
V\u7c7b\u522b\uff1aAsm
p1241
sg5
V2010-06-17  10:03
p1242
sg7
V\u000a\u000aC++\u4e2dplacement new\u5728VC6\u4e2d\u7684\u5b9e\u73b0
p1243
ssS'a35ddaa2dad8bba5caefd07b.html'
p1244
(dp1245
g3
V\u7c7b\u522b\uff1aVc
p1246
sg5
V2009-04-26  21:21
p1247
sg7
V\u000a\u000a\u6807\u5b9a\u7ed8\u56fe\u4f4d\u7f6e\u7684\u4e00\u79cd\u8bbe\u8ba1\uff08VC6.MFC.CWnd.GetWindowPlacement)
p1248
ssS'ea18b8119071e164cb80c402.html'
p1249
(dp1250
g3
V\u7c7b\u522b\uff1a\u7535\u8111\u6280\u672f
p1251
sg5
V2011-07-16  00:22
p1252
sg7
V\u000a\u000a\u7ffb\u8bd1\u4e0d\u52a8\u70b9
p1253
ssS'ab4bc711135a131cb8127ba3.html'
p1254
(dp1255
g3
V\u7c7b\u522b\uff1a\u7f51\u5740\u6536\u96c6
p1256
sg5
V2010-04-13  12:58
p1257
sg7
V\u000a\u000a[software] Launchy
p1258
ssS'c4d3bc001ac9118ee850cd49.html'
p1259
(dp1260
g3
V\u7c7b\u522b\uff1a\u7f51\u5740\u6536\u96c6
p1261
sg5
V2009-06-29  11:41
p1262
sg7
V\u000a\u000a\u6587\u4ef6\u5206\u4eab\u7f51\u7ad9hotfile
p1263
ssS'e7e9798d8c08e81eb21bba12.html'
p1264
(dp1265
g3
V\u7c7b\u522b\uff1a\u6742\u724c\u5c0f\u8bb0
p1266
sg5
V2010-05-22  15:39
p1267
sg7
V\u000a\u000a\u300a\u767d\u6866\u6797\u300b\u94a2\u7434\u8c31\uff08ove\uff0cpdf\uff09\uff08a\u5c0f\u8c03\uff0c\u7b80\u5355\u548c\u5f26\uff09\uff08\u914d\u594f\u7b14\u8bb0\uff09
p1268
ssS'a8f8c2fc216c14f7fd037ff3.html'
p1269
(dp1270
g3
V\u7c7b\u522b\uff1aEnglish
p1271
sg5
V2009-11-29  09:54
p1272
sg7
V\u000a\u000a&#34;A Nightmare On Elm Street&#34;
p1273
ssS'e7ce6160bb760649eaf8f859.html'
p1274
(dp1275
g3
V\u7c7b\u522b\uff1a\u6742\u724c\u5c0f\u8bb0
p1276
sg5
V2010-07-11  02:03
p1277
sg7
V\u000a\u000aX\u6765\u81ea\u672a\u6765\u4f1a\u6539\u53d8\u4e16\u754c\u5417\uff1f
p1278
ssS'6267a37773b21e13b151b9f7.html'
p1279
(dp1280
g3
V\u7c7b\u522b\uff1a\u7b97\u6cd5
p1281
sg5
V2009-05-11  21:34
p1282
sg7
V\u000a\u000a\u8d34\u4e00\u4e2aBST\uff08BinarySearchTree\uff09
p1283
ssS'c8d9c2951fdca142d0135ef6.html'
p1284
(dp1285
g3
V\u7c7b\u522b\uff1aMath
p1286
sg5
V2009-06-17  19:32
p1287
sg7
V\u000a\u000a\u8d39\u9a6c\u70b9\uff08\u521d\u8bd5\u51e0\u4f55\u753b\u677f\uff09
p1288
ssS'68db0055fd7f77ccb645ae3d.html'
p1289
(dp1290
g3
V\u7c7b\u522b\uff1ac&#47;c++
p1291
sg5
V2009-05-04  19:50
p1292
sg7
V\u000a\u000a\u4e0d\u8981YY\uff1aif\u548cswitch\u7684\u90a3\u4e48\u4e9b\u4e8b\u60c5\uff08C)
p1293
ssS'd8fd753e225aae3571cf6c21.html'
p1294
(dp1295
g3
V\u7c7b\u522b\uff1aScm
p1296
sg5
V2009-04-12  12:18
p1297
sg7
V\u000a\u000a\u56db\u79cd\u952e\u76d8\u7684\u603b\u7ed3\uff08\u5355\u6392\u952e\u76d8\u3002\u8bd1\u7801\u952e\u76d8\u3002\u77e9\u9635\u952e\u76d8\u3002\u77e9\u9635\u8bd1\u7801\u952e\u76d8\u3002\uff09
p1298
ssS'ea07a164b3474cfbf7365499.html'
p1299
(dp1300
g3
V\u7c7b\u522b\uff1aMatlab
p1301
sg5
V2009-12-31  14:46
p1302
sg7
V\u000a\u000anerd\u7684\u7b80\u6613\u5236\u8c31\u683c\u5f0f\uff08\u4e09\uff09\u89e3\u6790\u7a0b\u5e8f
p1303
ssS'93ccc5fccfc59582b801a0d9.html'
p1304
(dp1305
g3
V\u7c7b\u522b\uff1a\u7f51\u5740\u6536\u96c6
p1306
sg5
V2006-09-09  17:38
p1307
sg7
V\u000a\u000aFreePascal1.0.10(fp)(NOIP\u5b98\u65b9\u4e13\u7528)\u4e0b\u8f7d\u5730\u5740
p1308
ssS'34c7de2a4bd8eb91023bf685.html'
p1309
(dp1310
g3
V\u7c7b\u522b\uff1aEnglish
p1311
sg5
V2009-12-02  10:47
p1312
sg7
V\u000a\u000agot a free domain name
p1313
ssS'254254df0a9ccd0548540349.html'
p1314
(dp1315
g3
V\u7c7b\u522b\uff1ac&#47;c++
p1316
sg5
V2011-04-09  14:07
p1317
sg7
V\u000a\u000a\u518d\u8c08stl\u7684rotate
p1318
ssS'8aba45c29c0aa93ce4dd3b3f.html'
p1319
(dp1320
g3
V\u7c7b\u522b\uff1ac&#47;c++
p1321
sg5
V2009-06-29  19:09
p1322
sg7
V\u000a\u000a\u679a\u4e3e\u578b\uff0c\u7ed3\u6784\u4f53\uff0c\u540d\u5b57\u7a7a\u95f4\uff0c\u9759\u6001\u8f6c\u6362\uff0c\u4e60\u60ef\u95ee\u9898
p1323
ssS'5a11f1ed1238294779f0552a.html'
p1324
(dp1325
g3
V\u7c7b\u522b\uff1aVc
p1326
sg5
V2009-03-17  19:26
p1327
sg7
V\u000a\u000aCEdit \u7684\u591a\u884c\u663e\u793a\u9047\u5230\u7684\u95ee\u9898\uff08VC6)
p1328
ssS'3c1feafe3f1c5e395d600848.html'
p1329
(dp1330
g3
V\u7c7b\u522b\uff1a\u7b97\u6cd5
p1331
sg5
V2009-06-01  16:55
p1332
sg7
V\u000a\u000aSplayTree(\u4f38\u5c55\u64cd\u4f5c\u7684\u4e00\u4e2a\u6f14\u793a\uff09
p1333
ssS'7333f8d36415f2d4a8ec9a4b.html'
p1334
(dp1335
g3
V\u7c7b\u522b\uff1a\u7f51\u5740\u6536\u96c6
p1336
sg5
V2010-03-05  14:58
p1337
sg7
V\u000a\u000aOne more interesting guy
p1338
ssS'47a4985844514cd79d820428.html'
p1339
(dp1340
g3
V\u7c7b\u522b\uff1a\u6742\u724c\u5c0f\u8bb0
p1341
sg5
V2009-09-10  15:54
p1342
sg7
V\u000a\u000a\u4ece\u5c0f\u65f6\u5019\u7684\u52a8\u753b\u7247\u8bf4\u8d77
p1343
ssS'e6dca5c34d45be4fb219a81d.html'
p1344
(dp1345
g3
V\u7c7b\u522b\uff1a\u6742\u724c\u5c0f\u8bb0
p1346
sg5
V2011-07-31  00:59
p1347
sg7
V\u000a\u000a\u6559\u4e2d\u5e74\u4eba\u73a9\u4e00\u5c40\u6740\u4eba
p1348
ssS'2571093bb960aaea14cecba4.html'
p1349
(dp1350
g3
V\u7c7b\u522b\uff1a\u6742\u724c\u5c0f\u8bb0
p1351
sg5
V2006-12-02  21:31
p1352
sg7
V\u000a\u000a\u7a7a\u95f4\u7684\u7a7a
p1353
ssS'0ffd8082ca0b3598f603a699.html'
p1354
(dp1355
g3
V\u7c7b\u522b\uff1a\u7535\u8111\u6280\u672f
p1356
sg5
V2009-04-22  11:57
p1357
sg7
V\u000a\u000a\u5f3a\u5927\u7684LINGOES
p1358
ssS'2790d0b4db87437b8ad4b239.html'
p1359
(dp1360
g3
V\u7c7b\u522b\uff1ac&#47;c++
p1361
sg5
V2009-04-14  22:49
p1362
sg7
V\u000a\u000aSTL\u7684\u5806\uff08\u5806\u51fd\u6570\u53ca\u6cdb\u578b\u5806\u5b9e\u73b0\uff09
p1363
ssS'f11493252870a96a35a80f52.html'
p1364
(dp1365
g3
V\u7c7b\u522b\uff1aMatlab
p1366
sg5
V2009-12-09  20:51
p1367
sg7
V\u000a\u000aDFT\u5b9e\u73b0\u7b80\u5355\u7684\u8bed\u97f3\u538b\u7f29\uff08\u4e00\uff09
p1368
ssS'a9e471ecad2840d32e2e21d8.html'
p1369
(dp1370
g3
V\u7c7b\u522b\uff1a\u6742\u724c\u5c0f\u8bb0
p1371
sg5
V2007-07-20  22:14
p1372
sg7
V\u000a\u000a\u6211\u6d3b\u4e86,
p1373
ssS'534dd333b5728d48ac4b5fb8.html'
p1374
(dp1375
g3
V\u7c7b\u522b\uff1a\u6742\u724c\u5c0f\u8bb0
p1376
sg5
V2010-01-14  15:59
p1377
sg7
V\u000a\u000a\u3010\u5404\u79cd\u6559\u5506\u3011\u8fd9\u4e0b\u771f\u7684\u820d\u547d\u4e86\uff08\u9644\u864e\u5934\u86c7\u5c3e\u7cbe\u795e\u7684\u86cb\u75bc\u8bba\u8ff0\uff09
p1378
ssS'a311491609378c4221a4e96c.html'
p1379
(dp1380
g3
V\u7c7b\u522b\uff1a\u7b97\u6cd5
p1381
sg5
V2009-05-20  13:11
p1382
sg7
V\u000a\u000a\u5e73\u8861\u4e8c\u53c9\u6811\u5b9e\u73b0\u8be6\u89e3\uff08AVLTree\uff09\uff08\u4e8c\uff09\u63d2\u5165\u548c\u5220\u9664
p1383
ssS'2a2d953d8db7ed09bba1673a.html'
p1384
(dp1385
g3
V\u7c7b\u522b\uff1aScm
p1386
sg5
V2009-07-05  15:06
p1387
sg7
V\u000a\u000a74LS283\u5b9e\u73b0\u7684\u52a0\u51cf\u5668\uff08\u53cd\u89c2\u7a0b\u5e8f\u5458\u7684\u601d\u7ef4\u60b2\u5267\uff09
p1388
ssS'2bc327f5e7961924bd310937.html'
p1389
(dp1390
g3
V\u7c7b\u522b\uff1a\u7535\u8111\u6280\u672f
p1391
sg5
V2007-05-02  22:38
p1392
sg7
V\u000a\u000a\u60f3\u8d77\u4e00\u4ef6\u5f80\u4e8b
p1393
ssS'a7ea30f357ae365d342acc45.html'
p1394
(dp1395
g3
V\u7c7b\u522b\uff1a\u6742\u724c\u5c0f\u8bb0
p1396
sg5
V2010-08-08  22:38
p1397
sg7
V\u000a\u000a\u5e1d\u90fd\u9171\u6cb9\u8bb0\uff1f\uff01\uff08\u4e09\uff09
p1398
ssS'c0b2c6bf82272b0618d81ff9.html'
p1399
(dp1400
g3
V\u7c7b\u522b\uff1a.net&#47;c#&#47;sql
p1401
sg5
V2010-05-11  15:56
p1402
sg7
V\u000a\u000a\u7ea7\u8054\u5c5e\u6027\u6a21\u5f0f
p1403
ssS'a8f8c2fc579ce6f5fd037f20.html'
p1404
(dp1405
g3
V\u7c7b\u522b\uff1aScm
p1406
sg5
V2009-03-15  15:08
p1407
sg7
V\u000a\u000aADC0808(proteus)
p1408
ssS'7a8a0633d33d0ef01b4cff08.html'
p1409
(dp1410
g3
V\u7c7b\u522b\uff1a\u7b97\u6cd5
p1411
sg5
V2009-06-02  22:10
p1412
sg7
V\u000a\u000a\u5de6\u504f\u6811\uff08\u987a\u4fbf\u5237\u4e2aHDU1512\uff09
p1413
ssS'2831bcfd2058891e08244d54.html'
p1414
(dp1415
g3
V\u7c7b\u522b\uff1ac&#47;c++
p1416
sg5
V2009-04-06  12:02
p1417
sg7
V\u000a\u000a\u5411\u4e0a\u53d6\u6574&&\u5185\u5b58\u5bf9\u9f50
p1418
ssS'24c0cc5cb169fc4afaf2c021.html'
p1419
(dp1420
g3
V\u7c7b\u522b\uff1a\u6742\u724c\u5c0f\u8bb0
p1421
sg5
V2009-08-13  08:51
p1422
sg7
V\u000a\u000a\u4e0d\u5c0f\u5fc3\u89e6\u53ca\u5230\u4e86\u4e00\u79cd\u83ab\u540d\u7684\u60b2\u51c9
p1423
ssS'2047c1ef75e72b3eadafd584.html'
p1424
(dp1425
g3
V\u7c7b\u522b\uff1aScm
p1426
sg5
V2009-04-09  19:46
p1427
sg7
V\u000a\u000a\u7f16\u7801\u5668\u77e9\u9635\u952e\u76d8\uff08\u4e09\uff09\u952e\u76d8\u90e8\u5206\u548c\u539f\u7406\u8bf4\u660e
p1428
ssS'2b6de350ab3576561138c270.html'
p1429
(dp1430
g3
V\u7c7b\u522b\uff1aVc
p1431
sg5
V2009-11-15  11:33
p1432
sg7
V\u000a\u000a\u4f7f\u7528MATLAB Engine\u5b9e\u73b0\u4e0eC\u6df7\u5408\u7f16\u7a0b
p1433
ssS'c762de3f80b81cca7c1e717a.html'
p1434
(dp1435
g3
V\u7c7b\u522b\uff1aScm
p1436
sg5
V2009-05-15  23:58
p1437
sg7
V\u000a\u000aKEIL A51 \u901f\u67e5\u7b14\u8bb0
p1438
ssS'0832b63e5cd883f0838b1386.html'
p1439
(dp1440
g3
V\u7c7b\u522b\uff1ac&#47;c++
p1441
sg5
V2009-11-15  16:07
p1442
sg7
V\u000a\u000aCLAPACK\u7684dgeev_\u6c42\u7279\u5f81\u503c
p1443
ssS'24c0cc5c2662494bfaf2c028.html'
p1444
(dp1445
g3
V\u7c7b\u522b\uff1aVb
p1446
sg5
V2009-03-10  22:35
p1447
sg7
V\u000a\u000avb\u7684str\u7684\u4e00\u4e2a\u7ec6\u8282
p1448
ssS'1b910808c9036add63d9868a.html'
p1449
(dp1450
g3
V\u7c7b\u522b\uff1a\u7535\u8111\u6280\u672f
p1451
sg5
V2010-04-17  13:20
p1452
sg7
V\u000a\u000aSQLSERVER2005\u79fb\u690d\uff08.bak\u5907\u4efd\u6587\u4ef6\u79fb\u690d\uff0c.mdf/.ldf\u786c\u79fb\u690d\uff0c.sql\u811a\u672c\u79fb\u690d\uff0c\u9644\u6570\u636e\u5e93\u6587\u4ef6\u79fb\u52a8\uff09
p1453
ssS'e7ce61602ec7914ceaf8f882.html'
p1454
(dp1455
g3
V\u7c7b\u522b\uff1aScm
p1456
sg5
V2009-03-09  14:14
p1457
sg7
V\u000a\u000a\u79fb\u4f4d\u5bc4\u5b58\u63a7\u5236\u6570\u7801\u7ba1
p1458
ssS'c022ad86764b943766096e34.html'
p1459
(dp1460
g3
V\u7c7b\u522b\uff1aMath
p1461
sg5
V2009-09-02  21:00
p1462
sg7
V\u000a\u000a\u9884\u6d4b\u624b\u6bb5\uff0c\u5b9a\u53c2\u624b\u6bb5
p1463
ssS'4a5fc3ea9cb588dbd439c90a.html'
p1464
(dp1465
g3
V\u7c7b\u522b\uff1a\u7b97\u6cd5
p1466
sg5
V2009-05-18  14:14
p1467
sg7
V\u000a\u000aAVLTree\u7684\u4e00\u4e2a\u5b9e\u73b0\uff08\u5e26\u5220\u9664\u64cd\u4f5c\uff09
p1468
ssS'1ece48a770e1e78ed04358b3.html'
p1469
(dp1470
g3
V\u7c7b\u522b\uff1a\u6742\u724c\u5c0f\u8bb0
p1471
sg5
V2011-09-04  21:06
p1472
sg7
V\u000a\u000a\u5bc6\u96c6\u578b\u6050\u60e7\u75c7\u7684\u4eba\u5982\u4f55\u9762\u5bf9\u9ad8\u697c\uff1f\u30107\u56fe\u3011
p1473
ssS'e3f5b4098c78b82d6a60fb6b.html'
p1474
(dp1475
g3
V\u7c7b\u522b\uff1aVc
p1476
sg5
V2009-07-11  20:38
p1477
sg7
V\u000a\u000a\u5c4f\u5e55DC\uff0c\u5185\u5b58DC
p1478
ssS'7fec17959a6b82047af48063.html'
p1479
(dp1480
g3
V\u7c7b\u522b\uff1aEnglish
p1481
sg5
V2010-04-27  14:38
p1482
sg7
V\u000a\u000a[clip] build a tower, build a team.
p1483
ssS'254254dfaaf7ad194854035e.html'
p1484
(dp1485
g3
V\u7c7b\u522b\uff1aNetwork
p1486
sg5
V2009-10-20  11:43
p1487
sg7
V\u000a\u000aRFC1027\u7b14\u8bb0\uff0c\u4f7f\u7528ARP\u5b9e\u73b0\u900f\u660e\u5b50\u7f51\u7f51\u5173
p1488
ssS'181d9a527f5c34020df3e311.html'
p1489
(dp1490
g3
V\u7c7b\u522b\uff1a\u7f51\u5740\u6536\u96c6
p1491
sg5
V2010-04-08  15:43
p1492
sg7
V\u000a\u000a\u4e00\u4e2a\u7535\u5f71+\u4e24\u4e2a\u77ed\u7247
p1493
ssS'be297331c721af10eac4af0c.html'
p1494
(dp1495
g3
V\u7c7b\u522b\uff1a\u6742\u724c\u5c0f\u8bb0
p1496
sg5
V2009-06-23  19:45
p1497
sg7
V\u000a\u000a\u3010impossible.\u5934\u8111\u75af\u4e86\u7cfb\u5217.1\u3011\u4f60\u61c2\u4e2a\u5c41
p1498
ssS'93ccc5fc886bd088b801a015.html'
p1499
(dp1500
g3
V\u7c7b\u522b\uff1aNetwork
p1501
sg5
V2009-10-16  11:18
p1502
sg7
V\u000a\u000aUDP,IP,RIP\u7684\u9e21\u86cb\u95ee\u9898
p1503
ssS'8065aaece104673527979195.html'
p1504
(dp1505
g3
V\u7c7b\u522b\uff1aScm
p1506
sg5
V2009-03-22  22:07
p1507
sg7
V\u000a\u000aDAC0808\u5b9e\u73b0LED\u4eae\u5ea6\u8c03\u8282
p1508
ssS'2bc327f5eccbe221bd310947.html'
p1509
(dp1510
g3
V\u7c7b\u522b\uff1aEnglish
p1511
sg5
V2008-02-10  21:08
p1512
sg7
V\u000a\u000ano.6(a small programme)
p1513
ssS'40d72c9745f63b6f54fb9660.html'
p1514
(dp1515
g3
V\u7c7b\u522b\uff1a\u6742\u724c\u5c0f\u8bb0
p1516
sg5
V2007-06-17  18:43
p1517
sg7
V\u000a\u000a\u516d\u6708\u8fc7\u534a
p1518
ssS'a8d29150a0f2506a84352447.html'
p1519
(dp1520
g3
V\u7c7b\u522b\uff1a\u7b97\u6cd5
p1521
sg5
V2009-04-24  21:39
p1522
sg7
V\u000a\u000a\u5c3d\u91cf\u907f\u514dstack overflow\u7684quick sort\u7684\u4e00\u79cd\u5199\u6cd5
p1523
ssS'83afdc88111b7e8ca5c27243.html'
p1524
(dp1525
g3
V\u7c7b\u522b\uff1a\u6742\u724c\u5c0f\u8bb0
p1526
sg5
V2011-06-17  01:20
p1527
sg7
V\u000a\u000a\u548c\u6dd8\u5b9d\u5ba2\u670d\u7684\u5bf9\u8bdd
p1528
ssS'1d1e3badb5b992014a36d62d.html'
p1529
(dp1530
g3
V\u7c7b\u522b\uff1a\u7b97\u6cd5
p1531
sg5
V2009-06-02  14:35
p1532
sg7
V\u000a\u000a\u5173\u4e8e\u6392\u5e8f\u7684\u4e00\u70b9\u4e8b\u60c5
p1533
ssS'2571093b7a34ede614cecb13.html'
p1534
(dp1535
g3
V\u7c7b\u522b\uff1a\u4e4c\u4e03\u516b\u7cdf\u7684\u4e00\u4e9b\u4e8b
p1536
sg5
V2010-03-27  18:47
p1537
sg7
V\u000a\u000aRG3760\u505aDHCP\u548c\u4e2d\u7ee7\u7684\u56e7\u95ee\u9898
p1538
ssS'67e34136c5b5d2d1a2cc2b75.html'
p1539
(dp1540
g3
V\u7c7b\u522b\uff1aNetwork
p1541
sg5
V2010-06-03  15:50
p1542
sg7
V\u000a\u000a802.1X\u7684\u4e3b\u52a8\u548c\u88ab\u52a8\u6a21\u5f0f
p1543
ssS'18cea118bbbb770c34fa41e1.html'
p1544
(dp1545
g3
V\u7c7b\u522b\uff1a\u6742\u724c\u5c0f\u8bb0
p1546
sg5
V2010-02-07  22:11
p1547
sg7
V\u000a\u000a\u6b65\u884c
p1548
ssS'9b68b301c4599308728da5db.html'
p1549
(dp1550
g3
V\u7c7b\u522b\uff1aEnglish
p1551
sg5
V2010-01-17  19:42
p1552
sg7
V\u000a\u000a2012 , end of the world?
p1553
ssS'bd4524dd46d4fed08c102968.html'
p1554
(dp1555
g3
V\u7c7b\u522b\uff1ac&#47;c++
p1556
sg5
V2009-07-29  12:05
p1557
sg7
V\u000a\u000aBrainFuck\uff08\u4e00\uff09\u89e3\u91ca\u5668
p1558
ssS'8fbb05b39a4303abd8335a39.html'
p1559
(dp1560
g3
V\u7c7b\u522b\uff1a\u7f51\u5740\u6536\u96c6
p1561
sg5
V2010-04-06  19:52
p1562
sg7
V\u000a\u000aListen to an integer sequence
p1563
ssS'afe361633b0a026d0d33fa42.html'
p1564
(dp1565
g3
V\u7c7b\u522b\uff1a\u6742\u724c\u5c0f\u8bb0
p1566
sg5
V2010-07-03  23:44
p1567
sg7
V\u000a\u000a\u3010impossible.\u5934\u8111\u75af\u4e86\u7cfb\u5217.9\u3011\u6700\u540e\u7684\u5efa\u8bae
p1568
ssS'52fc672293ee6caf4723e8fe.html'
p1569
(dp1570
g3
V\u7c7b\u522b\uff1aLinux
p1571
sg5
V2010-01-08  18:37
p1572
sg7
V\u000a\u000a\u6536\u85cf\u4e00\u4e2avim\u7684\u914d\u7f6e\u6587\u4ef6\u3002
p1573
ssS'68db0055331b81c9b745ae9e.html'
p1574
(dp1575
g3
V\u7c7b\u522b\uff1a\u6742\u724c\u5c0f\u8bb0
p1576
sg5
V2010-07-04  09:24
p1577
sg7
V\u000a\u000a\u4e00\u5806\u65c5\u6e38\u7ae0
p1578
ssS'963c2d7f619f000329388ac2.html'
p1579
(dp1580
g3
V\u7c7b\u522b\uff1aMatlab
p1581
sg5
V2009-12-16  10:10
p1582
sg7
V\u000a\u000aPCM\u6298\u7ebf\u7f16\u7801\u7684\u7a0b\u5e8f\u6bb5
p1583
ssS'8637ab448c1f628eb3b7dc45.html'
p1584
(dp1585
g3
V\u7c7b\u522b\uff1a\u6742\u724c\u5c0f\u8bb0
p1586
sg5
V2010-04-04  17:14
p1587
sg7
V\u000a\u000a2010\u5e74MCM/ICM\u83b7\u5956\u7edf\u8ba1\uff08\u8349\u6839\u7248\uff09
p1588
ssS'902133db2dc57d6ed1164e4e.html'
p1589
(dp1590
g3
V\u7c7b\u522b\uff1a\u4e4c\u4e03\u516b\u7cdf\u7684\u4e00\u4e9b\u4e8b
p1591
sg5
V2009-03-19  21:45
p1592
sg7
V\u000a\u000afatal error C1083 \u548c BSCMAKE: error BK1506 \uff08VC6)
p1593
ssS'16e22238eddbfe29b9998f87.html'
p1594
(dp1595
g3
V\u7c7b\u522b\uff1aEnglish
p1596
sg5
V2010-06-10  13:42
p1597
sg7
V\u000a\u000a[economy]Price Discrimination Observed!!
p1598
ssS'b605c41b489a55f2ae51331b.html'
p1599
(dp1600
g3
V\u7c7b\u522b\uff1aVb
p1601
sg5
V2009-05-09  22:08
p1602
sg7
V\u000a\u000aVB\u5bfc\u5165\u7a7a\u683c\u5206\u5272\u7684\u6570\u636e\u5230EXCEL
p1603
ssS'1b91080891d422d963d98677.html'
p1604
(dp1605
g3
V\u7c7b\u522b\uff1a\u4e4c\u4e03\u516b\u7cdf\u7684\u4e00\u4e9b\u4e8b
p1606
sg5
V2009-03-16  19:23
p1607
sg7
V\u000a\u000aPROTEUS\u91cc\u9762\u5f39\u4e0d\u8d77\u6765\u7684\u6309\u94ae\uff08BUTTON)
p1608
ssS'a2f1ba514161c716377abe15.html'
p1609
(dp1610
g3
V\u7c7b\u522b\uff1aEnglish
p1611
sg5
V2010-09-11  02:42
p1612
sg7
V\u000a\u000aFreeters
p1613
ssS'fa2ebd456f19433fcefca3d0.html'
p1614
(dp1615
g3
V\u7c7b\u522b\uff1a\u6742\u724c\u5c0f\u8bb0
p1616
sg5
V2011-07-03  16:10
p1617
sg7
V\u000a\u000a\u5927\u8fde\u4e09\u65e5--5--\u5927\u8fde\uff08\u5b8c\uff09
p1618
ssS'0035a3ec3f65072f63d09f0d.html'
p1619
(dp1620
g3
V\u7c7b\u522b\uff1a\u4e4c\u4e03\u516b\u7cdf\u7684\u4e00\u4e9b\u4e8b
p1621
sg5
V2009-04-11  10:16
p1622
sg7
V\u000a\u000a\u65e0\u8fde\u63a5\u5c5e\u6027(types with no linkage)\uff08C++)\uff08VC6\uff1aerror C2926)
p1623
ssS'621a8802551274084afb51ca.html'
p1624
(dp1625
g3
V\u7c7b\u522b\uff1aAsm
p1626
sg5
V2009-02-06  23:16
p1627
sg7
V\u000a\u000aC\u5e93\u51fd\u6570memset()\u7684\u6e90\u7801
p1628
ssS'a2f68d01b07175db267fb596.html'
p1629
(dp1630
g3
V\u7c7b\u522b\uff1aEnglish
p1631
sg5
V2010-08-15  17:55
p1632
sg7
V\u000a\u000a[movie] The Shawshank Redemption
p1633
ssS'baf29d2ba29f6ff2e7cd40ee.html'
p1634
(dp1635
g3
V\u7c7b\u522b\uff1a\u7b97\u6cd5
p1636
sg5
V2009-04-06  21:24
p1637
sg7
V\u000a\u000aFFT\u4f18\u5316\u7684\u9ad8\u7cbe\u5ea6\u4e58\u6cd5\uff08\u4e8c\uff09\u5b9e\u73b0\u5085\u7acb\u53f6\u53d8\u6362
p1638
ssS'7a89fc24e7cfa7298644f9d0.html'
p1639
(dp1640
g3
V\u7c7b\u522b\uff1a\u6742\u724c\u5c0f\u8bb0
p1641
sg5
V2011-07-28  16:44
p1642
sg7
V\u000a\u000a\u5de7\u5408\u3002\u3002
p1643
ssS'c022ad86fdbd093666096ef8.html'
p1644
(dp1645
g3
V\u7c7b\u522b\uff1aVc
p1646
sg5
V2009-04-18  20:21
p1647
sg7
V\u000a\u000a\u521b\u5efa\u8fdb\u7a0b\u5e76\u7b49\u5f85\u7ed3\u675f
p1648
ssS'19105b3d244346ee3c6d97da.html'
p1649
(dp1650
g3
V\u7c7b\u522b\uff1a\u9ed8\u8ba4\u5206\u7c7b
p1651
sg5
V2006-09-09  17:46
p1652
sg7
V\u000a\u000atestpt
p1653
ssS'c5c02234f3cc7f375ab5f52a.html'
p1654
(dp1655
g3
V\u7c7b\u522b\uff1a\u6742\u724c\u5c0f\u8bb0
p1656
sg5
V2010-04-26  11:10
p1657
sg7
V\u000a\u000a\u9a6c\u767b\u6bc5\uff0c\u4f20\u8bf4\u7ea7\u4eba\u624d\u554a\uff08\u4e24\u89c6\u9891\u5730\u5740\uff0c\u7b14\u8bb0\uff0c\u5916\u4e00\u56fe\uff09
p1658
ssS'16e2223856422928b9998f0d.html'
p1659
(dp1660
g3
V\u7c7b\u522b\uff1aEnglish
p1661
sg5
V2010-05-17  19:28
p1662
sg7
V\u000a\u000a[soft]Where has your time gone? -- WorkTime & LeechBlock
p1663
ssS'ccbe5c4e4b336b10b2de050b.html'
p1664
(dp1665
g3
V\u7c7b\u522b\uff1a\u7535\u8111\u6280\u672f
p1666
sg5
V2011-07-02  22:15
p1667
sg7
V\u000a\u000aGABN-2011-v1\uff0c\u5a31\u4e50\u65f6\u4ee3
p1668
ssS'8d68db5857ee9186810a1827.html'
p1669
(dp1670
g3
V\u7c7b\u522b\uff1a\u4e4c\u4e03\u516b\u7cdf\u7684\u4e00\u4e9b\u4e8b
p1671
sg5
V2009-02-26  15:35
p1672
sg7
V\u000a\u000a\u4e00\u5f00\u59cb\u7528C51\u6c47\u7f16\u5199\u7a0b\u5e8f\u7684\u4e00\u4e9b\u4e11\u964b\u4e8b\u60c5
p1673
ssS'bebbf9dee772a25495ee3783.html'
p1674
(dp1675
g3
V\u7c7b\u522b\uff1aoi\u6863\u6848
p1676
sg5
V2006-10-02  14:21
p1677
sg7
V\u000a\u000avijos-1025
p1678
ssS'b7f4a2d372575238960a165a.html'
p1679
(dp1680
g3
V\u7c7b\u522b\uff1a\u7f51\u5740\u6536\u96c6
p1681
sg5
V2010-03-21  21:33
p1682
sg7
V\u000a\u000aFutureMe
p1683
ssS'a7175866be8a5729aa184cf7.html'
p1684
(dp1685
g3
V\u7c7b\u522b\uff1a\u6742\u724c\u5c0f\u8bb0
p1686
sg5
V2010-06-30  18:40
p1687
sg7
V\u000a\u000a\u901a\u8fc7\u89c6\u89c9\u5224\u65adpaper\u7684\u597d\u574f\uff01\uff01\uff01\uff01
p1688
ssS'c14806f418d4f3ef7709d707.html'
p1689
(dp1690
g3
V\u7c7b\u522b\uff1aoi\u6863\u6848
p1691
sg5
V2006-10-14  23:22
p1692
sg7
V\u000a\u000avijos-1016
p1693
ssS'c0eab0a1be3d338446106441.html'
p1694
(dp1695
g3
V\u7c7b\u522b\uff1a\u6742\u724c\u5c0f\u8bb0
p1696
sg5
V2010-10-17  02:11
p1697
sg7
V\u000a\u000a\u5e1d\u90fd\u9171\u6cb9\u8bb0\uff1f\uff01\uff08\u4e03\uff09
p1698
ssS'71b32f2d3578483f359bf72c.html'
p1699
(dp1700
g3
V\u7c7b\u522b\uff1a\u6742\u724c\u5c0f\u8bb0
p1701
sg5
V2010-01-15  19:26
p1702
sg7
V\u000a\u000a\u56f4\u89c2\u9ad8\u7ea7\u73a9\u5177
p1703
ssS'd916c9ce663ce90b93457ed7.html'
p1704
(dp1705
g3
V\u7c7b\u522b\uff1a\u7f51\u5740\u6536\u96c6
p1706
sg5
V2009-03-08  21:29
p1707
sg7
V\u000a\u000aPI\u76841\u767e\u4e07\u4f4d\u2014\u2014\u4e00\u4e2a\u7325\u7410\u7684\u7f51\u7ad9\u3002\u3002\u4e0d\u5f97\u4e0d\u8bb0\u4e4b
p1708
ssS'438cda16a4448b14962b4332.html'
p1709
(dp1710
g3
V\u7c7b\u522b\uff1aNetwork
p1711
sg5
V2010-03-26  12:23
p1712
sg7
V\u000a\u000a\u3010PacketTracer\u3011IPsec\u5b9e\u9a8c\uff0c\u4e3b\u673a\u5230\u5b50\u7f51\u7684VPN\uff0cdebug\u8bb0\u5f55(ezvpn)
p1713
ssS'f6fb9aef218484e4cf1b3e53.html'
p1714
(dp1715
g3
V\u7c7b\u522b\uff1aEnglish
p1716
sg5
V2009-12-25  19:22
p1717
sg7
V\u000a\u000aFight Club...
p1718
ssS'f8ba3f2aeaf233355243c1c1.html'
p1719
(dp1720
g3
V\u7c7b\u522b\uff1aVc
p1721
sg5
V2010-06-13  14:31
p1722
sg7
V\u000a\u000a\u4e00\u4e2awindows\u4e0b\u7684\u7ba1\u9053\u7c7b\u3002\uff08\u4e92\u65a5\u91cf\uff0c\u4fe1\u53f7\u91cf\uff0c\u6b7b\u9501\uff0c\u63a7\u5236\u53f0IO\uff09
p1723
ssS'a2f68d01449399df267fb568.html'
p1724
(dp1725
g3
V\u7c7b\u522b\uff1a\u6742\u724c\u5c0f\u8bb0
p1726
sg5
V2009-06-24  13:15
p1727
sg7
V\u000a\u000a\u3010impossible.\u5934\u8111\u75af\u4e86\u7cfb\u5217.2\u3011\u5bfc\u751f\u7533\u8bf7\u8868\u683c
p1728
ssS'2410eccdd0f2b6590eb34509.html'
p1729
(dp1730
g3
V\u7c7b\u522b\uff1aScm
p1731
sg5
V2009-03-16  21:32
p1732
sg7
V\u000a\u000aKEIL C \u7f16\u8bd1\u7684TRICK\u63a2\u7a764\uff08\u7edd\u5bf9\u8bbf\u95ee\uff09
p1733
ssS'e936db0072232610738b650a.html'
p1734
(dp1735
g3
V\u7c7b\u522b\uff1a\u7535\u8111\u6280\u672f
p1736
sg5
V2007-06-09  13:36
p1737
sg7
V\u000a\u000a\u6539\u6d4f\u89c8\u5668\u6807\u9898
p1738
ssS'0c7f007b13bc7bfc0bd187c2.html'
p1739
(dp1740
g3
V\u7c7b\u522b\uff1aScm
p1741
sg5
V2009-02-27  22:49
p1742
sg7
V\u000a\u000a\u5b9a\u65f6\u4e2d\u65ad\u95ea\u70c1\u706f
p1743
ssS'68db0055981d54cdb745ae9c.html'
p1744
(dp1745
g3
V\u7c7b\u522b\uff1ac&#47;c++
p1746
sg5
V2009-08-18  14:08
p1747
sg7
V\u000a\u000a\u6574\u6570\u4e8c\u5206\u7684\u4e24\u79cd\u5199\u6cd5\u6bd4\u8f83
p1748
ssS'd7b61a38179af6fbb311c7a8.html'
p1749
(dp1750
g3
V\u7c7b\u522b\uff1a\u7f51\u5740\u6536\u96c6
p1751
sg5
V2009-06-18  10:26
p1752
sg7
V\u000a\u000a\u79fb\u52a8\u7684139\u90ae\u7bb1
p1753
ssS'13e271f47686f5d3f3d38528.html'
p1754
(dp1755
g3
V\u7c7b\u522b\uff1a\u7535\u8111\u6280\u672f
p1756
sg5
V2009-11-06  22:07
p1757
sg7
V\u000a\u000a\u4e00\u6b21\u65e0\u5149\u9a71\u5b89\u88c5\u7684\u5b9e\u8df5\uff08U\u76d8winPE-&#62;XP)
p1758
ssS'68db0055107bacc8b645ae3d.html'
p1759
(dp1760
g3
V\u7c7b\u522b\uff1a\u6742\u724c\u5c0f\u8bb0
p1761
sg5
V2010-04-08  20:49
p1762
sg7
V\u000a\u000a\u300a\u8d85\u8d8a\u8f6e\u56de\u300b
p1763
ssS'bebbf9de9309d65c95ee371c.html'
p1764
(dp1765
g3
V\u7c7b\u522b\uff1ac&#47;c++
p1766
sg5
V2009-04-06  20:57
p1767
sg7
V\u000a\u000aFFT\u4f18\u5316\u7684\u9ad8\u7cbe\u5ea6\u4e58\u6cd5\uff08\u4e00\uff09\u5b9e\u73b0\u590d\u6570\u7c7b
p1768
ssS'1b3b68d9cd8b812410df9b2f.html'
p1769
(dp1770
g3
V\u7c7b\u522b\uff1aMath
p1771
sg5
V2009-05-27  22:39
p1772
sg7
V\u000a\u000a\u7a0b\u5e8f\u5224\u65ad\u903b\u8f91\u95ee\u9898\uff0c\u8574\u542b\u8868\u8fbe\u5f0f\u7684\u7b49\u4ef7\u8f6c\u6362\uff08MATLAB)
p1773
ssS'82f9ba7e76e7ff310dd7da3f.html'
p1774
(dp1775
g3
V\u7c7b\u522b\uff1a\u6742\u724c\u5c0f\u8bb0
p1776
sg5
V2009-08-06  11:35
p1777
sg7
V\u000a\u000a\u53d8\u6001\u7248\u7684\u8d85\u7ea7\u739b\u4e3d\u622a\u56fe
p1778
ssS'3f9981d4d0641909a08bb70f.html'
p1779
(dp1780
g3
V\u7c7b\u522b\uff1a\u7b97\u6cd5
p1781
sg5
V2009-05-05  19:08
p1782
sg7
V\u000a\u000a\u805a\u96c6\u68cb\u76d8\u4e0a\u7684n\u4e2a\u70b9\uff08\u8ddd\u79bb\u548c\u5f0f\u89e3\u7b54\uff0c\u4e2d\u4f4d\u6570\u89e3\u7b54\uff09
p1783
ssS'68db005503fdd1ccb645aeb3.html'
p1784
(dp1785
g3
V\u7c7b\u522b\uff1ac&#47;c++
p1786
sg5
V2009-03-24  18:09
p1787
sg7
V\u000a\u000a\u7325\u7410\u7684\u8f93\u5165\u8f93\u51fa--\u8bf4\u597d\u542c\u70b9\u4e5f\u53eb\u4f18\u5316\u3002\u3002\u3002\uff08G++)
p1788
ssS'46c61bdf5b30ac1a622798b4.html'
p1789
(dp1790
g3
V\u7c7b\u522b\uff1aVc
p1791
sg5
V2009-06-27  16:23
p1792
sg7
V\u000a\u000a\u7ed1\u5b9acmd\u5230\u6307\u5b9a\u7aef\u53e3
p1793
ssS'4a5fc3eabe6daad9d439c9fc.html'
p1794
(dp1795
g3
V\u7c7b\u522b\uff1a\u6742\u724c\u5c0f\u8bb0
p1796
sg5
V2009-11-08  17:34
p1797
sg7
V\u000a\u000a\u6765\u81ea\u9a6c\u54f2\u8bfe\u4e0a\u7684\u51e0\u4e2a\u8bae\u9898
p1798
ssS'c0f979f073fcb7a7a50f5295.html'
p1799
(dp1800
g3
V\u7c7b\u522b\uff1a\u7b97\u6cd5
p1801
sg5
V2009-06-06  10:59
p1802
sg7
V\u000a\u000a\u6590\u6ce2\u90a3\u5951\u5806(fibonacci heap)(poj2253)(hdu1512)
p1803
ssS'a6af49a90cc3aff41f17a2bc.html'
p1804
(dp1805
g3
V\u7c7b\u522b\uff1aScm
p1806
sg5
V2009-04-09  19:31
p1807
sg7
V\u000a\u000a\u7f16\u7801\u5668\u77e9\u9635\u952e\u76d8\uff08\u4e8c\uff09\u663e\u793a\u90e8\u5206\uff0874LS47+\u5171\u9633LED,74LS48+\u5171\u9634LED)
p1808
ssS'd224c9fd02f12f4ed7887d8c.html'
p1809
(dp1810
g3
V\u7c7b\u522b\uff1aMath
p1811
sg5
V2010-02-20  14:00
p1812
sg7
V\u000a\u000a\u7b80\u8bb0\uff0csoft maximum\uff0c
p1813
ssS'8420dbc8765911107e3e6fb5.html'
p1814
(dp1815
g3
V\u7c7b\u522b\uff1a\u7b97\u6cd5
p1816
sg5
V2009-02-10  15:51
p1817
sg7
V\u000a\u000a\u5dee\u5206\u7ea6\u675f\u7cfb\u7edf(POJ1201)
p1818
ssS'0a3fa76e7e9072d280cb4a22.html'
p1819
(dp1820
g3
V\u7c7b\u522b\uff1a\u7b97\u6cd5
p1821
sg5
V2009-03-14  19:14
p1822
sg7
V\u000a\u000awhu1412\uff08Molecular Weight Calculator\uff09\u9012\u5f52\u4e0b\u964d\uff1f
p1823
ssS'8d68db58eb0e1d89810a18c7.html'
p1824
(dp1825
g3
V\u7c7b\u522b\uff1a\u7b97\u6cd5
p1826
sg5
V2009-04-16  20:46
p1827
sg7
V\u000a\u000a\u6700\u5c0f\u751f\u6210\u6811\uff08KRUSCAL,PRIM\u601d\u60f3\u53caSOLLIN\u5b9e\u73b0)
p1828
ssS'ede998458c5cb72f869473aa.html'
p1829
(dp1830
g3
V\u7c7b\u522b\uff1a\u6742\u724c\u5c0f\u8bb0
p1831
sg5
V2010-11-13  22:16
p1832
sg7
V\u000a\u000a\u4e24\u5219\u5173\u4e8e\u58f0\u97f3\u5927\u5c0f\u7684\u6545\u4e8b
p1833
ssS'a2349682365e7cb26c81199a.html'
p1834
(dp1835
g3
V\u7c7b\u522b\uff1a\u6742\u724c\u5c0f\u8bb0
p1836
sg5
V2010-07-24  17:40
p1837
sg7
V\u000a\u000a\u5e1d\u90fd\u9171\u6cb9\u8bb0\uff1f\uff01\uff08\u4e00\uff09
p1838
ssS'58be03236a3f8c469358073a.html'
p1839
(dp1840
g3
V\u7c7b\u522b\uff1a\u7535\u8111\u6280\u672f
p1841
sg5
V2009-05-29  14:57
p1842
sg7
V\u000a\u000aEXCEL\u5224\u65ad\u903b\u8f91\u95ee\u9898\uff08\u6a21\u62df\u8fd0\u7b97\u8868\u7684\u4f7f\u7528\uff09
p1843
ssS'd224c9fd0705524cd6887d9e.html'
p1844
(dp1845
g3
V\u7c7b\u522b\uff1ac&#47;c++
p1846
sg5
V2009-08-18  19:50
p1847
sg7
V\u000a\u000a\u300aC\u9677\u9631\u4e0e\u7f3a\u9677\u300b\u7b14\u8bb0
p1848
ssS'4804376d0ddd7ef14216947f.html'
p1849
(dp1850
g3
V\u7c7b\u522b\uff1a\u7535\u8111\u6280\u672f
p1851
sg5
V2009-11-25  09:35
p1852
sg7
V\u000a\u000awelcome box back(and turn it into a local disk)
p1853
ssS'2571093b015122ed14cecbb2.html'
p1854
(dp1855
g3
V\u7c7b\u522b\uff1aAsm
p1856
sg5
V2009-02-18  21:10
p1857
sg7
V\u000a\u000aASM\u505a\u6807\u51c6\u5e93\uff0cC\u8c03\u7528\u3010\u5c1d\u9c9c\u5b9e\u9a8c\uff0c\u65e0\u6280\u672f\u542b\u91cf\u3011
p1858
ssS'56fab3124886fbcec2fd7800.html'
p1859
(dp1860
g3
V\u7c7b\u522b\uff1aoi\u6863\u6848
p1861
sg5
V2006-10-14  23:32
p1862
sg7
V\u000a\u000avijos-1026
p1863
ssS'04243cd36ff7390c3bf3cfa1.html'
p1864
(dp1865
g3
V\u7c7b\u522b\uff1a\u6742\u724c\u5c0f\u8bb0
p1866
sg5
V2010-05-02  17:48
p1867
sg7
V\u000a\u000a\u3010impossible.\u5934\u8111\u75af\u4e86\u7cfb\u5217.8\u3011\u5565\u662f\u52b3\u52a8\u8282\uff1f
p1868
ssS'fa12104ccb587bf5d62afc2a.html'
p1869
(dp1870
g3
V\u7c7b\u522b\uff1a.net&#47;c#&#47;sql
p1871
sg5
V2010-05-08  17:08
p1872
sg7
V\u000a\u000a\u7528XML\u6587\u4ef6\u4fdd\u5b58\u914d\u7f6e\u4fe1\u606f\u7684\u4e00\u4e2a\u7c7b(C#)
p1873
ssS'a8eb409051423e83a877a45e.html'
p1874
(dp1875
g3
V\u7c7b\u522b\uff1a\u6742\u724c\u5c0f\u8bb0
p1876
sg5
V2010-09-15  01:27
p1877
sg7
V\u000a\u000a\u548c\u5988\u5988\u7684\u90a3\u4e9b\u4e8b
p1878
ssS'b528771e2f7fcbff1ad5763e.html'
p1879
(dp1880
g3
V\u7c7b\u522b\uff1a\u7535\u8111\u6280\u672f
p1881
sg5
V2010-02-23  05:29
p1882
sg7
V\u000a\u000aword\u7684\u51e0\u4e2a\u4e8b\u60c5\uff0c\u5b8f\uff0c\u57df\uff0c\u5f15\u53f7
p1883
ssS'a3fb9913c36f28886438db60.html'
p1884
(dp1885
g3
V\u7c7b\u522b\uff1a\u7b97\u6cd5
p1886
sg5
V2009-06-01  15:59
p1887
sg7
V\u000a\u000aSplayTree(\u4f38\u5c55\u6811\uff0c\u81ea\u9876\u5411\u4e0b\u7684\u5b9e\u73b0\uff09
p1888
ssS'a8eb4090453b3281a877a44b.html'
p1889
(dp1890
g3
V\u7c7b\u522b\uff1aNetwork
p1891
sg5
V2010-04-06  18:32
p1892
sg7
V\u000a\u000aBoson NetSim\u4eff\u771fRIP\u7684\u4e00\u6bb5DEBUG\u5206\u6790
p1893
ssS'db6a6f383c3db92996ddd8ba.html'
p1894
(dp1895
g3
V\u7c7b\u522b\uff1ac&#47;c++
p1896
sg5
V2009-09-26  16:33
p1897
sg7
V\u000a\u000aC\u4e2d\u7684\u539f\u578b\u63d0\u5347\u95ee\u9898
p1898
ssS'4b45ae0f2e4587e3aa6457d2.html'
p1899
(dp1900
g3
V\u7c7b\u522b\uff1a\u6742\u724c\u5c0f\u8bb0
p1901
sg5
V2010-09-23  10:58
p1902
sg7
V\u000a\u000a\u8c01\u80fd\u66f42\u4e00\u70b9
p1903
ssS'bd4524dd1edad6d28c102968.html'
p1904
(dp1905
g3
V\u7c7b\u522b\uff1a\u6742\u724c\u5c0f\u8bb0
p1906
sg5
V2010-02-10  14:41
p1907
sg7
V\u000a\u000a\u4ece\u201c\u8001\u5b50\u548c\u5b54\u5b50\u6253\u67b6\u201d\u95ee\u7b2c\u56db\u6001
p1908
ssS'39de3e9b2d9c4dbbc8eaf4fb.html'
p1909
(dp1910
g3
V\u7c7b\u522b\uff1a\u6742\u724c\u5c0f\u8bb0
p1911
sg5
V2010-08-27  23:50
p1912
sg7
V\u000a\u000a\u5e1d\u90fd\u9171\u6cb9\u8bb0\uff1f\uff01\uff08\u4e94\uff09--\u6e10\u6e10\u9041\u5165\u751f\u6d3b\u7684\u5927\u6d41
p1913
ssS'e7ce61609ab7254ceaf8f813.html'
p1914
(dp1915
g3
V\u7c7b\u522b\uff1ac&#47;c++
p1916
sg5
V2009-05-07  15:44
p1917
sg7
V\u000a\u000a\u5b8f\u5d4c\u5957\u7684\u4e00\u70b9\u610f\u4e49
p1918
ssS'c813dd2a0b5ff13cd52af166.html'
p1919
(dp1920
g3
V\u7c7b\u522b\uff1a\u7f51\u5740\u6536\u96c6
p1921
sg5
V2010-12-18  23:53
p1922
sg7
V\u000a\u000aWhich Test Won?
p1923
ssS'e3f5b40900b63c386a60fbb8.html'
p1924
(dp1925
g3
V\u7c7b\u522b\uff1a\u6742\u724c\u5c0f\u8bb0
p1926
sg5
V2011-11-04  20:44
p1927
sg7
V\u000a\u000a\u4ece&quot;naive guess&quot;\u60f3\u5230\u7684
p1928
ssS'c8d9c295cd201342d0135e32.html'
p1929
(dp1930
g3
V\u7c7b\u522b\uff1a\u4e4c\u4e03\u516b\u7cdf\u7684\u4e00\u4e9b\u4e8b
p1931
sg5
V2009-08-18  10:38
p1932
sg7
V\u000a\u000a\u767e\u5ea6hi\u7684\u7f29\u8fdb\u95ee\u9898\uff0c\u4e34\u65f6\u65b9\u6848
p1933
ssS'c762de3f15fa89cc7c1e7102.html'
p1934
(dp1935
g3
V\u7c7b\u522b\uff1a\u6742\u724c\u5c0f\u8bb0
p1936
sg5
V2010-09-04  11:00
p1937
sg7
V\u000a\u000a\u62ec\u53f7\u5f15\u5165\u8bed\u6cd5\u7684\u5fc5\u8981\u6027
p1938
ssS'96ebab8bf08caa729f2fb436.html'
p1939
(dp1940
g3
V\u7c7b\u522b\uff1a\u6742\u724c\u5c0f\u8bb0
p1941
sg5
V2010-07-14  14:13
p1942
sg7
V\u000a\u000a\u8ddf\u98ce\u4eff\u51e0\u6bb5\u6821\u5185\u4f53\u2026\u2026debug\u7684\u7537\u4eba\uff0899\u6761\uff09
p1943
ssS'1b910808d9947ac263d9863a.html'
p1944
(dp1945
g3
V\u7c7b\u522b\uff1aNetwork
p1946
sg5
V2011-02-01  00:24
p1947
sg7
V\u000a\u000a[paper] XORs in The Air: Practical Wireless Network Coding\uff08\u7ffb\u8bd1\u3001\u4e09\uff09
p1948
ssS'377d53ee99212af3b3fb955b.html'
p1949
(dp1950
g3
V\u7c7b\u522b\uff1ac&#47;c++
p1951
sg5
V2009-04-22  14:08
p1952
sg7
V\u000a\u000alist.sort(greater&#60;T&#62;)\u7684\u7528\u6cd5(DEV-C,VC6)(vc6.error c2934)
p1953
ssS'68db005590a82cc8b645aecc.html'
p1954
(dp1955
g3
V\u7c7b\u522b\uff1aMatlab
p1956
sg5
V2010-05-19  20:22
p1957
sg7
V\u000a\u000amatlab\u997c\u56fe\uff08pie\uff09\u81ea\u52a8\u5ffd\u75650\u503c\u7684\u95ee\u9898
p1958
ssS'c1fc03244a8a7a2cd50742e0.html'
p1959
(dp1960
g3
V\u7c7b\u522b\uff1a\u4e4c\u4e03\u516b\u7cdf\u7684\u4e00\u4e9b\u4e8b
p1961
sg5
V2009-02-19  17:03
p1962
sg7
V\u000a\u000aINTERNAL COMPILER ERROR (VC6)
p1963
ssS'a31149165e03bb4221a4e970.html'
p1964
(dp1965
g3
V\u7c7b\u522b\uff1a\u7535\u8111\u6280\u672f
p1966
sg5
V2009-06-08  14:34
p1967
sg7
V\u000a\u000a\u7b2c\u4e00\u4e2a\u6808\u6ea2\u51fa\u5b9e\u9a8c\uff080day.chap4.4\uff09
p1968
ssS'2571093b82f4a5e714cecb5d.html'
p1969
(dp1970
g3
V\u7c7b\u522b\uff1a\u6742\u724c\u5c0f\u8bb0
p1971
sg5
V2010-07-04  23:51
p1972
sg7
V\u000a\u000a\u5927\u5b66\u91cc\u7684\u5c0f\u4e1c\u897f
p1973
ssS'c0e3b9de8d205449cdbf1af9.html'
p1974
(dp1975
g3
V\u7c7b\u522b\uff1a\u6742\u724c\u5c0f\u8bb0
p1976
sg5
V2010-12-11  01:54
p1977
sg7
V\u000a\u000a\u4e00\u4ef6\u5ac1\u8863
p1978
ssS'524388269617881e8b82a1bb.html'
p1979
(dp1980
g3
V\u7c7b\u522b\uff1a\u7b97\u6cd5
p1981
sg5
V2009-08-05  09:59
p1982
sg7
V\u000a\u000aBrainFuck\uff08\u56db\uff09\u57fa\u672c\u64cd\u4f5c\u3010\u610f\u8bd1\u3011(\u4e0b\uff09
p1983
ssS'1d1e3bad395a06044a36d6c9.html'
p1984
(dp1985
g3
V\u7c7b\u522b\uff1a\u6742\u724c\u5c0f\u8bb0
p1986
sg5
V2010-07-06  12:12
p1987
sg7
V\u000a\u000a\u5fc3\u613f\uff08\u56db\u4e2a\u5973\u751f\uff09\uff0c\u5c0f\u63d0\u7434\u6c99\u97f3\u7248
p1988
ssS'21a42f1f68ea7bc1a6866970.html'
p1989
(dp1990
g3
V\u7c7b\u522b\uff1a\u7f51\u5740\u6536\u96c6
p1991
sg5
V2009-08-11  14:58
p1992
sg7
V\u000a\u000a\u4e00\u5806geek\u7a0b\u5e8f
p1993
ssS'3695942fbb0c63371f30899a.html'
p1994
(dp1995
g3
V\u7c7b\u522b\uff1aLinux
p1996
sg5
V2010-10-17  23:37
p1997
sg7
V\u000a\u000a\u4e00\u5957win\u4e0b\u7684perl\u5de5\u4f5c\u73af\u5883\uff08cygwin\uff0ce-texteditor\uff0c\u53c2\u6570\u89e3\u51b3\u65b9\u6848\uff09
p1998
ssS'a2349682735e39bd6c811997.html'
p1999
(dp2000
g3
V\u7c7b\u522b\uff1a\u6742\u724c\u5c0f\u8bb0
p2001
sg5
V2007-08-30  19:38
p2002
sg7
V\u000a\u000a\u5f00\u5b66\u4e86
p2003
ssS'e6e99b8f9f88d7fd503d9232.html'
p2004
(dp2005
g3
V\u7c7b\u522b\uff1aAsm
p2006
sg5
V2009-02-13  14:06
p2007
sg7
V\u000a\u000a\u5173\u4e8eCALL\uff08\u7edd\u5bf9CALL\uff1f\u76f8\u5bf9CALL\uff1f)
p2008
ssS'a973a3017198be011c9583e6.html'
p2009
(dp2010
g3
V\u7c7b\u522b\uff1a\u7f51\u5740\u6536\u96c6
p2011
sg5
V2009-02-06  22:07
p2012
sg7
V\u000a\u000a\u4ee5\u56fe\u641c\u56fe\u7684\u5f3a\u5927\u641c\u7d22\u5f15\u64ce
p2013
ssS'b8068013a2483bd8f6039e06.html'
p2014
(dp2015
g3
V\u7c7b\u522b\uff1a\u7f51\u5740\u6536\u96c6
p2016
sg5
V2009-04-06  13:32
p2017
sg7
V\u000a\u000a\u6709\u8da3\u7684\u7ec3\u624b\u7f51\u7ad9
p2018
ssS'b0aea7342eb454bcd1a2d348.html'
p2019
(dp2020
g3
V\u7c7b\u522b\uff1aMath
p2021
sg5
V2010-03-06  15:15
p2022
sg7
V\u000a\u000a\u6c42\u5a5a\u516c\u5f0f
p2023
ssS'de16141737878d0a4a90a79f.html'
p2024
(dp2025
g3
V\u7c7b\u522b\uff1aMatlab
p2026
sg5
V2009-12-31  14:43
p2027
sg7
V\u000a\u000anerd\u7684\u7b80\u6613\u5236\u8c31\u683c\u5f0f\uff08\u4e8c\uff09\u6587\u4ef6\u683c\u5f0f\u8bf4\u660e
p2028
ssS'68db005509addbdeb645aedd.html'
p2029
(dp2030
g3
V\u7c7b\u522b\uff1a\u7535\u8111\u6280\u672f
p2031
sg5
V2011-07-13  10:39
p2032
sg7
V\u000a\u000a\u770b\u6211\u4ee5\u540e\u8fd8\u6562\u4e0d\u6562\u4e71\u586b\u8d44\u6599\u3002\u3002\u3002\u3002-_-\u3002\u3002-_-//
p2033
ssS'c14806f495be76e07709d769.html'
p2034
(dp2035
g3
V\u7c7b\u522b\uff1a\u6742\u724c\u5c0f\u8bb0
p2036
sg5
V2010-10-29  01:26
p2037
sg7
V\u000a\u000a\u672c\u671d\u4e92\u8054\u7f51\u884c\u4e1a\u7684\u5947\u8469--\u516c\u5173\u5927\u6218
p2038
ssS'8065aaecefd4693027979142.html'
p2039
(dp2040
g3
V\u7c7b\u522b\uff1a\u6742\u724c\u5c0f\u8bb0
p2041
sg5
V2010-06-19  17:17
p2042
sg7
V\u000a\u000a\u770b\u4e86\u9891\u79fb\u952e\u63a7\u7684\u5458\u5de5\u81ea\u8ff0\u8868\u793a\u538b\u529b\u5f88\u5927
p2043
ssS'e234be8fb124d1e5f11f3601.html'
p2044
(dp2045
g3
V\u7c7b\u522b\uff1a\u7535\u8111\u6280\u672f
p2046
sg5
V2010-01-06  13:28
p2047
sg7
V\u000a\u000aVISTA\u7acb\u529f\u4e86\u3002\u3002\u4e24\u5c42VPN\u7ffb\u51fa\u53bb\u901b\u4e86\u4e00\u5708\u3002
p2048
ssS'6d3387106e81c20b203f2e39.html'
p2049
(dp2050
g3
V\u7c7b\u522b\uff1aMatlab
p2051
sg5
V2009-12-11  22:30
p2052
sg7
V\u000a\u000a\u4fe1\u53f7\u5904\u7406\u5b9e\u9a8c\u6742\u8bb0\u4e09\u5219\uff08MATLAB)\uff08freqz\u6c42\u65f6\u57df\u5e8f\u5217\u7684\u9891\u54cd\uff0c\u4e0b\u6807\uff0cfdatool\u5bfc\u51fa\u7684IIR\u6ee4\u6ce2\u5668\u7684SOS)
p2053
ssS'e1f5302947f1fcf299250a9e.html'
p2054
(dp2055
g3
V\u7c7b\u522b\uff1aNetwork
p2056
sg5
V2010-03-24  20:50
p2057
sg7
V\u000a\u000a\u3010PacketTracer\u3011dhcp\u4e2d\u7ee7
p2058
ssS'a7ea30f306e8f95e342acc03.html'
p2059
(dp2060
g3
V\u7c7b\u522b\uff1a\u6742\u724c\u5c0f\u8bb0
p2061
sg5
V2010-08-25  22:26
p2062
sg7
V\u000a\u000a\u6d41\u7a0b\u7ed9\u6211\u4eec\u5e26\u6765\u4ec0\u4e48\uff1f
p2063
ssS'a7ea30f387266648342accc0.html'
p2064
(dp2065
g3
V\u7c7b\u522b\uff1a\u6742\u724c\u5c0f\u8bb0
p2066
sg5
V2011-06-08  01:25
p2067
sg7
V\u000a\u000a\u65f6\u95f4\u7ba1\u7406
p2068
ssS'e936db001972dd18738b65a2.html'
p2069
(dp2070
g3
V\u7c7b\u522b\uff1a\u4e4c\u4e03\u516b\u7cdf\u7684\u4e00\u4e9b\u4e8b
p2071
sg5
V2009-06-19  12:33
p2072
sg7
V\u000a\u000a\u5bf9\u51fd\u6570\u6307\u9488\u8fdb\u884c\u8c03\u7528\u7ea6\u5b9a\u7684\u4fee\u9970\uff08warning C4229)(VC6)
p2073
ssS'f7277189560103bf0e244422.html'
p2074
(dp2075
g3
V\u7c7b\u522b\uff1a\u6742\u724c\u5c0f\u8bb0
p2076
sg5
V2010-03-19  18:08
p2077
sg7
V\u000a\u000a\u7b54\u8bb0\u8005\u95ee
p2078
ssS'0832b63e8f9c6cf6838b13fb.html'
p2079
(dp2080
g3
V\u7c7b\u522b\uff1aNetwork
p2081
sg5
V2010-04-16  22:55
p2082
sg7
V\u000a\u000aPPPoE\u7684\u5c01\u88c5\u7ed3\u6784
p2083
ssS'd217f603163cee88d53f7c07.html'
p2084
(dp2085
g3
V\u7c7b\u522b\uff1aoi\u6863\u6848
p2086
sg5
V2006-10-14  23:25
p2087
sg7
V\u000a\u000avijos-1022
p2088
ssS'ccbe5c4e3ed23600b2de051a.html'
p2089
(dp2090
g3
V\u7c7b\u522b\uff1aMath
p2091
sg5
V2009-09-01  11:48
p2092
sg7
V\u000a\u000a\u7528\u4e24\u4e2a\u975e\u95e8\u5b9e\u73b0\u7ffb\u8f6c\u4e09\u4e2a\u53d8\u91cf
p2093
ssS'4804376de026ddf2421694b5.html'
p2094
(dp2095
g3
V\u7c7b\u522b\uff1a\u7b97\u6cd5
p2096
sg5
V2009-07-23  11:30
p2097
sg7
V\u000a\u000a\u4e00\u4e2a\u7ebf\u6027\u7b5b\u7d20\u6570\u7684\u56fe\u5f62\u6f14\u793a(matlab)
p2098
ssS'a565865425ef22143a293593.html'
p2099
(dp2100
g3
V\u7c7b\u522b\uff1a\u7f51\u5740\u6536\u96c6
p2101
sg5
V2010-02-27  12:03
p2102
sg7
V\u000a\u000amath symbols in HTML and TEX aided by wiki
p2103
ssS'13e271f49d2f1ec5f0d38561.html'
p2104
(dp2105
g3
V\u7c7b\u522b\uff1a\u6742\u724c\u5c0f\u8bb0
p2106
sg5
V2011-10-23  19:13
p2107
sg7
V\u000a\u000a\u5173\u4e8e\u7231\u60c5\u7684\u5934\u8111\u98ce\u66b4\uff083\uff09\u77e5\u5df1\u4e0e\u77e5\u4eba
p2108
ssS'9cfa0be9749b3f34b90e2deb.html'
p2109
(dp2110
g3
V\u7c7b\u522b\uff1aVc
p2111
sg5
V2009-12-24  10:22
p2112
sg7
V\u000a\u000a\u5220\u9664VC\u5de5\u7a0b\u4e2d\u7684\u4e00\u4e9b\u65e0\u7528\u6587\u4ef6\uff08BAT)
p2113
ssS'2b19308755f0a42ec75cc3eb.html'
p2114
(dp2115
g3
V\u7c7b\u522b\uff1a\u6742\u724c\u5c0f\u8bb0
p2116
sg5
V2008-02-20  13:41
p2117
sg7
V\u000a\u000aTMD\uff0c\u5403\u9971\u4e86\u6ca1\u4e8b\u5e72\uff0c\u53ea\u77e5\u9053\u9a97\u732a\u5934
p2118
ssS'4411b8fbbb4743294e4aea23.html'
p2119
(dp2120
g3
V\u7c7b\u522b\uff1aLinux
p2121
sg5
V2009-12-29  15:47
p2122
sg7
V\u000a\u000a\u663e\u793a\u6587\u4ef6\u5c5e\u6027\u7684\u811a\u672c
p2123
ssS'b0618dd6f083b02f06088b83.html'
p2124
(dp2125
g3
V\u7c7b\u522b\uff1aoi\u6863\u6848
p2126
sg5
V2006-10-02  14:18
p2127
sg7
V\u000a\u000avijos-1028
p2128
ssS'0035a3ecdaeeaa2a63d09f91.html'
p2129
(dp2130
g3
V\u7c7b\u522b\uff1a\u6742\u724c\u5c0f\u8bb0
p2131
sg5
V2010-08-01  22:55
p2132
sg7
V\u000a\u000a\u5e1d\u90fd\u9171\u6cb9\u8bb0\uff1f\uff01\uff08\u4e8c\uff09
p2133
ssS'db6a6f38a4e7212f96ddd843.html'
p2134
(dp2135
g3
V\u7c7b\u522b\uff1a\u6742\u724c\u5c0f\u8bb0
p2136
sg5
V2010-05-12  22:49
p2137
sg7
V\u000a\u000a\u300a\u53ef\u7231\u7684\u5bb6\u300b\u94a2\u7434\u8c31\uff08pdf\uff0cove\uff09
p2138
ssS'6ed46d09f9050dcb3ac76342.html'
p2139
(dp2140
g3
V\u7c7b\u522b\uff1aEnglish
p2141
sg5
V2008-02-11  21:04
p2142
sg7
V\u000a\u000ano.7(driving)
p2143
ssS'4868b8b77604b5ff30add1f8.html'
p2144
(dp2145
g3
V\u7c7b\u522b\uff1aVc
p2146
sg5
V2010-02-18  14:58
p2147
sg7
V\u000a\u000avista\u4f7f\u7528showwindow\u7684\u4e00\u70b9\u95ee\u9898
p2148
ssS'86e03a4eb58583d8d0c86af2.html'
p2149
(dp2150
g3
V\u7c7b\u522b\uff1ac&#47;c++
p2151
sg5
V2010-12-25  18:54
p2152
sg7
V\u000a\u000a\u6761\u4ef6\u7f16\u8bd1\u89e3\u51b3/**/\u6ce8\u91ca\u5d4c\u5957\u7684\u95ee\u9898(#if 0 #endif)
p2153
ssS'4f3587b1e0002a5f0823026c.html'
p2154
(dp2155
g3
V\u7c7b\u522b\uff1aLinux
p2156
sg5
V2010-01-16  19:01
p2157
sg7
V\u000a\u000alinux shell+C++\u66b4\u529b24\u70b9
p2158
ssS'30d5b20e81cc20ee37d12270.html'
p2159
(dp2160
g3
V\u7c7b\u522b\uff1a\u4e4c\u4e03\u516b\u7cdf\u7684\u4e00\u4e9b\u4e8b
p2161
sg5
V2009-07-24  17:53
p2162
sg7
V\u000a\u000astart\u548cdos\u547d\u4ee4\u8fde\u63a5\u7b26\u7684\u95ee\u9898
p2163
ssS'fa12104cdbf56bf8d62afc82.html'
p2164
(dp2165
g3
V\u7c7b\u522b\uff1a\u6742\u724c\u5c0f\u8bb0
p2166
sg5
V2007-05-21  12:59
p2167
sg7
V\u000a\u000a\u81ea\u751f\u81ea\u706d
p2168
ssS'a2f3e1c474376aa08326ac02.html'
p2169
(dp2170
g3
V\u7c7b\u522b\uff1a\u7f51\u5740\u6536\u96c6
p2171
sg5
V2009-06-28  16:51
p2172
sg7
V\u000a\u000aMathematical Fiction
p2173
ssS'50de9d0ae664ea1494ca6b44.html'
p2174
(dp2175
g3
V\u7c7b\u522b\uff1a\u7f51\u5740\u6536\u96c6
p2176
sg5
V2010-02-26  14:03
p2177
sg7
V\u000a\u000a\u5f88\u6709\u65f6\u4ee3\u80cc\u666f\u611f\u7684\u4e00\u672c\u5c0f\u4eba\u4e66
p2178
ssS'b10602fa5c86358758ee90d1.html'
p2179
(dp2180
g3
V\u7c7b\u522b\uff1aLinux
p2181
sg5
V2010-11-06  14:26
p2182
sg7
V\u000a\u000aperl\u4e2d\u7684\u5f15\u53f7
p2183
ssS'7cc8454a0d90ba3908f7ef5d.html'
p2184
(dp2185
g3
V\u7c7b\u522b\uff1a\u6742\u724c\u5c0f\u8bb0
p2186
sg5
V2011-08-20  16:07
p2187
sg7
V\u000a\u000a\u597d\u957f\u7684\u4e00\u4e2a\u6691\u5047
p2188
ssS'd7b61a388a2483e8b311c708.html'
p2189
(dp2190
g3
V\u7c7b\u522b\uff1a\u7535\u8111\u6280\u672f
p2191
sg5
V2011-07-19  23:17
p2192
sg7
V\u000a\u000a\u4ece\u868a\u97f3\u8bf4\u8d77
p2193
ssS'0035a3ecf6dbfe2f63d09fdf.html'
p2194
(dp2195
g3
V\u7c7b\u522b\uff1aMath
p2196
sg5
V2009-05-05  13:48
p2197
sg7
V\u000a\u000a\u6b8b\u5dee\u7edd\u5bf9\u548c\u6700\u5c0f\u7684\u62df\u5408\u51c6\u5219\uff08\u9ec4\u91d1\u5206\u5272\u6c42\u5355\u5cf0\u6781\u503c\uff09
p2198
ssS'3695942f088bd0311e308913.html'
p2199
(dp2200
g3
V\u7c7b\u522b\uff1aMath
p2201
sg5
V2009-09-07  21:03
p2202
sg7
V\u000a\u000a\u5c42\u6b21\u5206\u6790\u6cd5\uff08\u4ee5\u9009\u5973\u53cb\u4e3a\u4f8b\uff09
p2203
ssS'4b45ae0fd73abee3aa6457dd.html'
p2204
(dp2205
g3
V\u7c7b\u522b\uff1a\u6742\u724c\u5c0f\u8bb0
p2206
sg5
V2010-09-12  15:42
p2207
sg7
V\u000a\u000a\u4f53\u68c0\u4f17\u76f8
p2208
ssS'f437ed11a36230cea6ef3f1b.html'
p2209
(dp2210
g3
V\u7c7b\u522b\uff1a\u7b97\u6cd5
p2211
sg5
V2009-03-29  14:19
p2212
sg7
V\u000a\u000a\u57c3\u53ca\u5206\u6570\uff08IDA*)
p2213
ssS'f8ceb299d964d0046f068c38.html'
p2214
(dp2215
g3
V\u7c7b\u522b\uff1a\u7f51\u5740\u6536\u96c6
p2216
sg5
V2010-05-06  20:06
p2217
sg7
V\u000a\u000aFarecast, airline analysis
p2218
ssS'2bc327f5ff79f137bd3109e7.html'
p2219
(dp2220
g3
V\u7c7b\u522b\uff1a\u6742\u724c\u5c0f\u8bb0
p2221
sg5
V2011-01-03  00:01
p2222
sg7
V\u000a\u000a\u5e1d\u90fd\u9171\u6cb9\u8bb0\uff1f\uff01\uff08\u5341\u4e8c\uff09\u2014\u2014LAN Party
p2223
ssS'd916c9cedd86600a93457e0a.html'
p2224
(dp2225
g3
V\u7c7b\u522b\uff1a\u7b97\u6cd5
p2226
sg5
V2009-08-06  22:45
p2227
sg7
V\u000a\u000a\u4e00\u7c7b\u8fde\u7eed\u6700\u5927\u533a\u57df\u95ee\u9898\uff08fzu1801,POJ3494,2559,2796,3250)
p2228
ssS'c0f979f0c5adcdb5a50f52d7.html'
p2229
(dp2230
g3
V\u7c7b\u522b\uff1a\u6742\u724c\u5c0f\u8bb0
p2231
sg5
V2011-07-23  18:07
p2232
sg7
V\u000a\u000a\u67e5\u51fa\u6765\u7684\u75c5\u6bd2\u5e76\u4e0d\u53ef\u6015
p2233
ssS'2739df39e61ac0fa3b87ce6a.html'
p2234
(dp2235
g3
V\u7c7b\u522b\uff1a\u7535\u8111\u6280\u672f
p2236
sg5
V2009-09-08  15:00
p2237
sg7
V\u000a\u000aEXCEL\u4e2d\u7684\u6570\u7ec4\u516c\u5f0f(Ctrl+Shift+Enter\u7ed3\u675f\uff09
p2238
ssS'88cfb631a48ea6a15fdf0e86.html'
p2239
(dp2240
g3
V\u7c7b\u522b\uff1a\u4e4c\u4e03\u516b\u7cdf\u7684\u4e00\u4e9b\u4e8b
p2241
sg5
V2009-08-03  22:23
p2242
sg7
V\u000a\u000a\u6253\u5f00\u63a7\u5236\u53f0\u6587\u4ef6\u7684\u6a21\u5f0f\u5b57\u7b26\u4e32\u95ee\u9898
p2243
ssS'e7ce6160c29bed40eaf8f8f3.html'
p2244
(dp2245
g3
V\u7c7b\u522b\uff1aEnglish
p2246
sg5
V2008-02-02  15:53
p2247
sg7
V\u000a\u000ano.4(a survey)
p2248
ssS'40308bcb6229d8f653664f83.html'
p2249
(dp2250
g3
V\u7c7b\u522b\uff1aEnglish
p2251
sg5
V2010-01-20  21:17
p2252
sg7
V\u000a\u000areaching for the day of reckoning ..
p2253
ssS'6ed46d09534963c43ac7630d.html'
p2254
(dp2255
g3
V\u7c7b\u522b\uff1aMatlab
p2256
sg5
V2009-12-20  13:30
p2257
sg7
V\u000a\u000aFFT\u76f8\u5173\uff08\u4e00\uff09\uff08MATLAB\uff09\uff08DIT2,DIF2\u7684\u9012\u5f52\u5b9e\u73b0\uff0c\u5b9e\u5e8f\u5217fft\u8ba1\u7b97)
p2258
ssS'2bc327f5c5cdfb2cbd310942.html'
p2259
(dp2260
g3
V\u7c7b\u522b\uff1a\u6742\u724c\u5c0f\u8bb0
p2261
sg5
V2009-07-18  18:56
p2262
sg7
V\u000a\u000a\u3010impossible.\u5934\u8111\u75af\u4e86\u7cfb\u5217.3\u3011\u4e0d\u5728\u5b66\u751f\u4f1a\u7684\u5b66\u751f\u7684\u4f1a
p2263
ssS'a31149166a786f4a21a4e920.html'
p2264
(dp2265
g3
V\u7c7b\u522b\uff1aoi\u6863\u6848
p2266
sg5
V2006-09-10  16:45
p2267
sg7
V\u000a\u000a\u90c1\u95f7\u7684\u7cbe\u5ea6\u95ee\u9898
p2268
ssS'5de26406e44d1c73030881af.html'
p2269
(dp2270
g3
V\u7c7b\u522b\uff1aScm
p2271
sg5
V2009-03-09  13:26
p2272
sg7
V\u000a\u000a\u4e0a\u62c9\u7535\u963b\uff08PULLUP\uff09
p2273
ssS'6d338710a500ff0b203f2eba.html'
p2274
(dp2275
g3
V\u7c7b\u522b\uff1ac&#47;c++
p2276
sg5
V2009-11-23  13:06
p2277
sg7
V\u000a\u000aMATRIX LIB (pure C)
p2278
ssS'96aee1f832004205d8f9fd24.html'
p2279
(dp2280
g3
V\u7c7b\u522b\uff1a\u7535\u8111\u6280\u672f
p2281
sg5
V2009-09-18  11:40
p2282
sg7
V\u000a\u000a\u6279\u5904\u7406\u6539\u53d8cmd\u98ce\u683c\uff08\u5b57\u4f53\u5927\u5c0f\uff0c\u989c\u8272\uff09
p2283
ssS'5de26406dff9476203088114.html'
p2284
(dp2285
g3
V\u7c7b\u522b\uff1a\u6742\u724c\u5c0f\u8bb0
p2286
sg5
V2011-06-24  00:51
p2287
sg7
V\u000a\u000a\u5927\u8fde\u4e09\u65e5--4--\u51b0\u5cea\u6c9f
p2288
ssS'a2f3e1c47cb762b38326ac93.html'
p2289
(dp2290
g3
V\u7c7b\u522b\uff1a\u6742\u724c\u5c0f\u8bb0
p2291
sg5
V2011-07-11  23:59
p2292
sg7
V\u000a\u000a\u5341\u4e09\u79cd\u4ee4\u4eba\u86cb\u75bc\u7684\u6c42\u52a9
p2293
ssS'1bbfb919050a4a4242a9ada5.html'
p2294
(dp2295
g3
V\u7c7b\u522b\uff1aScm
p2296
sg5
V2009-02-26  19:18
p2297
sg7
V\u000a\u000a\u7b80\u5355\u7684\u901a\u7528\u82b1\u5f0f\u6d41\u6c34\u706f
p2298
ssS'baf29d2bb27a5ff2e7cd400b.html'
p2299
(dp2300
g3
V\u7c7b\u522b\uff1ac&#47;c++
p2301
sg5
V2009-04-13  18:37
p2302
sg7
V\u000a\u000avolatile(c++)
p2303
ssS'89c8780e2764d3c27acbe1ed.html'
p2304
(dp2305
g3
V\u7c7b\u522b\uff1aScm
p2306
sg5
V2009-03-01  15:21
p2307
sg7
V\u000a\u000a\u77e9\u9635\u952e\u76d8\u548c\u6570\u7801\u7ba1
p2308
ssS'c0b2c6bf5f6ee60618d81f81.html'
p2309
(dp2310
g3
V\u7c7b\u522b\uff1a\u7f51\u5740\u6536\u96c6
p2311
sg5
V2010-04-19  14:02
p2312
sg7
V\u000a\u000a\u7535\u5b50\u5730\u56fe\uff1a\u4f60\u5728\u770b\u51e0\u5e74\u524d\u7684\u6570\u636e\uff1f
p2313
ssS'1bacf81f75e4026af724e485.html'
p2314
(dp2315
g3
V\u7c7b\u522b\uff1ac&#47;c++
p2316
sg5
V2009-07-21  13:58
p2317
sg7
V\u000a\u000a\u865a\u51fd\u6570\u7684\u5e95\u5c42\u673a\u5236
p2318
ssS'58be0323ab7a4d4e9358077c.html'
p2319
(dp2320
g3
V\u7c7b\u522b\uff1a\u7535\u8111\u6280\u672f
p2321
sg5
V2006-08-30  21:31
p2322
sg7
V\u000a\u000a\u53d1\u7a7a\u8d34
p2323
ssS'7fec1795e7f221197af480e1.html'
p2324
(dp2325
g3
V\u7c7b\u522b\uff1a\u6742\u724c\u5c0f\u8bb0
p2326
sg5
V2010-12-02  00:34
p2327
sg7
V\u000a\u000a\u7b2c\u4e00\u6b21\u201c\u56de\u201d\u6210\u90fd
p2328
ssS'7333f8d35b261bd3a8ec9a64.html'
p2329
(dp2330
g3
V\u7c7b\u522b\uff1aNetwork
p2331
sg5
V2010-03-18  22:15
p2332
sg7
V\u000a\u000a\u3010PacketTracer\u3011NAT\u914d\u7f6e\u5b9e\u9a8c
p2333
ssS'c62071cb96ac6416bf09e6ba.html'
p2334
(dp2335
g3
V\u7c7b\u522b\uff1a\u7b97\u6cd5
p2336
sg5
V2009-08-05  09:58
p2337
sg7
V\u000a\u000aBrainFuck\uff08\u56db\uff09\u57fa\u672c\u64cd\u4f5c\u3010\u610f\u8bd1\u3011(\u4e0a\uff09
p2338
ssS'b80680130e78cfd9f6039e37.html'
p2339
(dp2340
g3
V\u7c7b\u522b\uff1a\u7535\u8111\u6280\u672f
p2341
sg5
V2009-08-12  15:29
p2342
sg7
V\u000a\u000a\u5728word\u7684\u63d2\u5165\u83dc\u5355\u4e0b\u6316\u77ff\uff08\u76ee\u5f55\uff0c\u81ea\u52a8\u7f16\u53f7\u56fe\u6587\u7b49\uff09
p2343
ssS'bebbf9de8308c65c95ee371d.html'
p2344
(dp2345
g3
V\u7c7b\u522b\uff1a\u7b97\u6cd5
p2346
sg5
V2009-03-31  09:05
p2347
sg7
V\u000a\u000a\u9ad8\u7cbe\u5ea6\u7c7b\uff08C++\uff09CBigInt
p2348
ssS'91e013d85897093532fa1cf0.html'
p2349
(dp2350
g3
V\u7c7b\u522b\uff1a\u6742\u724c\u5c0f\u8bb0
p2351
sg5
V2007-02-04  17:17
p2352
sg7
V\u000a\u000a\u611b\u3059\u3079\u304d\u660e\u65e5
p2353
ssS'2a2d953dfa177e08bba167d9.html'
p2354
(dp2355
g3
V\u7c7b\u522b\uff1a\u7b97\u6cd5
p2356
sg5
V2009-05-12  18:58
p2357
sg7
V\u000a\u000a\u8d34\u4e00\u4e2a\u6d77\u660e\u7801(HammingCode)
p2358
ssS'96aee1f87eb18604d8f9fd97.html'
p2359
(dp2360
g3
V\u7c7b\u522b\uff1a\u6742\u724c\u5c0f\u8bb0
p2361
sg5
V2010-03-01  14:19
p2362
sg7
V\u000a\u000a\u6709\u691f\u5b50\u4e86\uff0c\u5565\u65f6\u5019\u53bb\u641e\u73e0\u5b50\u5583\u3002\u3002
p2363
ssS'c0e3b9de2e24355fcdbf1afc.html'
p2364
(dp2365
g3
V\u7c7b\u522b\uff1ac&#47;c++
p2366
sg5
V2009-02-15  15:24
p2367
sg7
V\u000a\u000a\u683c\u5f0f\u5316\u8f93\u5165\u8f93\u51fa\u6d6e\u70b9\u6570\u636e\u7684\u7ec6\u5fae\u95ee\u9898\uff08C\u6807\u51c6\uff1aprintf,scanf)
p2368
ssS'b7f4a2d39e567e3e960a1659.html'
p2369
(dp2370
g3
V\u7c7b\u522b\uff1ac&#47;c++
p2371
sg5
V2009-10-05  20:27
p2372
sg7
V\u000a\u000a\u683c\u5f0f\u5316RFC\u6587\u6863
p2373
ssS'34c7de2a3f0f1f96023bf656.html'
p2374
(dp2375
g3
V\u7c7b\u522b\uff1a\u6742\u724c\u5c0f\u8bb0
p2376
sg5
V2010-06-15  17:48
p2377
sg7
V\u000a\u000a\u5404\u79cd\u6df7\u4e71\u3002\u3002\u3002
p2378
ssS'94dfefddd693d7ec77c6380b.html'
p2379
(dp2380
g3
V\u7c7b\u522b\uff1a\u6742\u724c\u5c0f\u8bb0
p2381
sg5
V2007-10-04  17:09
p2382
sg7
V\u000a\u000a\u5927\u5b66\u5176\u5b9e
p2383
ssS'a2f3e1c424d71aa58326aced.html'
p2384
(dp2385
g3
V\u7c7b\u522b\uff1a\u6742\u724c\u5c0f\u8bb0
p2386
sg5
V2010-04-14  22:25
p2387
sg7
V\u000a\u000a\u3010\u8bfb\u540e\u611f\u3011CNNIC\u7b2c25\u6b21\u8c03\u67e5\u62a5\u544a
p2388
ssS'2790d0b46aaef0788ad4b25d.html'
p2389
(dp2390
g3
V\u7c7b\u522b\uff1a\u6742\u724c\u5c0f\u8bb0
p2391
sg5
V2010-03-03  19:27
p2392
sg7
V\u000a\u000a\u5bd2\u5047\u7684\u9053\u542c\u9014\u8bf4
p2393
ssS'e9f38c1880d89cb44bedbce9.html'
p2394
(dp2395
g3
V\u7c7b\u522b\uff1a\u6742\u724c\u5c0f\u8bb0
p2396
sg5
V2006-11-03  00:12
p2397
sg7
V\u000a\u000aJOIN-TSINGHUA,FAINTING...(\u602a\u5f02\u73b0\u8c61)
p2398
ssS'd224c9fdb4cde149d7887da0.html'
p2399
(dp2400
g3
V\u7c7b\u522b\uff1aEnglish
p2401
sg5
V2010-04-23  16:09
p2402
sg7
V\u000a\u000a[movie] The Fantastic Mr. Fox
p2403
ssS'39d2153073c0c892a8018ebe.html'
p2404
(dp2405
g3
V\u7c7b\u522b\uff1ac&#47;c++
p2406
sg5
V2010-01-21  15:06
p2407
sg7
V\u000a\u000a\u5404\u79cd\u7248\u672c\u7684memcpy\uff08\u5e95\u5c42\u4f18\u5316\uff09
p2408
ssS'3ec4b338bdfb02c8d46225fb.html'
p2409
(dp2410
g3
V\u7c7b\u522b\uff1a\u6742\u724c\u5c0f\u8bb0
p2411
sg5
V2009-10-11  11:06
p2412
sg7
V\u000a\u000a\u3010\u5404\u79cd\u6559\u5506\u3011\u5f00\u59cb\u5ffd\u60a0\u5c0f\u670b\u53cb\u4e86\uff08\u5927\u5b66\u5b66\u4e60\u4e3b\u9898\uff09
p2413
ssS'add4bb35484ea19ba71e12ca.html'
p2414
(dp2415
g3
V\u7c7b\u522b\uff1a\u7535\u8111\u6280\u672f
p2416
sg5
V2010-11-07  21:58
p2417
sg7
V\u000a\u000a[ff\u63d2\u4ef6]vimperator\uff08\u7b80\u4ecb\u3001\u914d\u7f6e\u3001\u8fdb\u9636\u3001\u7126\u70b9\u95ee\u9898\uff09
p2418
ssS'ab4bc711263c261eb8127bcb.html'
p2419
(dp2420
g3
V\u7c7b\u522b\uff1aLinux
p2421
sg5
V2010-09-20  22:03
p2422
sg7
V\u000a\u000apthread\u5bf9\u591a\u7ebf\u7a0b\u8bbf\u95ee\u5168\u5c40\u6570\u636e\u7ed3\u6784\u7684\u652f\u6301
p2423
ssS'377d53ee341e4ff7b3fb950d.html'
p2424
(dp2425
g3
V\u7c7b\u522b\uff1aNetwork
p2426
sg5
V2010-03-24  11:40
p2427
sg7
V\u000a\u000a\u3010PacketTracer\u3011\u5355\u81c2\u8def\u7531
p2428
ssS'dcfb788b56cc1c03c9fc7ab3.html'
p2429
(dp2430
g3
V\u7c7b\u522b\uff1a\u6742\u724c\u5c0f\u8bb0
p2431
sg5
V2010-12-14  01:01
p2432
sg7
V\u000a\u000a\u7b2c\u4e8c\u6b21\u201c\u56de\u201d\u6210\u90fd
p2433
ssS'd97fdb43286a871f72f05d73.html'
p2434
(dp2435
g3
V\u7c7b\u522b\uff1aEnglish
p2436
sg5
V2010-04-13  20:18
p2437
sg7
V\u000a\u000a[tech]Entity Extraction -- A Definite Road to Make The Blog Structured
p2438
ssS'f1149325ed1e646a35a80f47.html'
p2439
(dp2440
g3
V\u7c7b\u522b\uff1aAsm
p2441
sg5
V2009-10-02  19:55
p2442
sg7
V\u000a\u000a\u5728\u6808\u4e0a\u5206\u914d\u7a7a\u95f4\uff08VC6)
p2443
ssS'2571093b408ae3e214cecb55.html'
p2444
(dp2445
g3
V\u7c7b\u522b\uff1a\u4e4c\u4e03\u516b\u7cdf\u7684\u4e00\u4e9b\u4e8b
p2446
sg5
V2009-03-17  18:29
p2447
sg7
V\u000a\u000afatal error C1010 \uff08VC6)
p2448
ssS'63e406f30f5723c20b46e0f5.html'
p2449
(dp2450
g3
V\u7c7b\u522b\uff1ac&#47;c++
p2451
sg5
V2009-07-15  14:34
p2452
sg7
V\u000a\u000aswitch..case..\u6807\u7b7e..\u6392\u7248
p2453
ssS'96ebab8b1ee44c749f2fb44c.html'
p2454
(dp2455
g3
V\u7c7b\u522b\uff1a\u7b97\u6cd5
p2456
sg5
V2010-01-19  17:31
p2457
sg7
V\u000a\u000a\u8868\u9a71\u52a8CRC\uff0cCRC24A,CRC24B\u7684\u8ba1\u7b97\u7a0b\u5e8f
p2458
ssS'c3f104f4d4915869dcc47452.html'
p2459
(dp2460
g3
V\u7c7b\u522b\uff1a\u6742\u724c\u5c0f\u8bb0
p2461
sg5
V2009-02-22  20:29
p2462
sg7
V\u000a\u000a\u6700\u8fd1\u5927\u6982
p2463
ssS'6a065ee72b097c23b83820ab.html'
p2464
(dp2465
g3
V\u7c7b\u522b\uff1a\u6742\u724c\u5c0f\u8bb0
p2466
sg5
V2010-06-27  15:46
p2467
sg7
V\u000a\u000a\u62fc\u516c\u4ea4\u8f66\u56de\u5bb6\uff08\u6a21\u5757\u5316or not\uff1f\uff09
p2468
ssS'2410eccdc21d845d0eb345ee.html'
p2469
(dp2470
g3
V\u7c7b\u522b\uff1aNetwork
p2471
sg5
V2010-03-24  12:34
p2472
sg7
V\u000a\u000a\u3010PacketTracer\u3011\u4e09\u5c42\u4ea4\u6362dhcp\uff0cvtp
p2473
ssS'0a3fa76e45727fd780cb4ac9.html'
p2474
(dp2475
g3
V\u7c7b\u522b\uff1ac&#47;c++
p2476
sg5
V2010-06-16  20:35
p2477
sg7
V\u000a\u000aC++\u4e2d\u5e26\u62ec\u53f7\u7684new\u3002\u3002\uff08placement new\uff09
p2478
ssS'd217f603afa3a985d53f7cb9.html'
p2479
(dp2480
g3
V\u7c7b\u522b\uff1aVc
p2481
sg5
V2010-07-10  17:44
p2482
sg7
V\u000a\u000a\u79bb\u6821\u524d\u9171\u6cb9\u6700\u540e\u4e00\u4e2a\u6bd4\u8d5b\uff08\u6570\u72ec\u6e38\u620f\uff09
p2483
ssS'e3f5b409b619ae296a60fb16.html'
p2484
(dp2485
g3
V\u7c7b\u522b\uff1a\u6742\u724c\u5c0f\u8bb0
p2486
sg5
V2010-06-28  22:20
p2487
sg7
V\u000a\u000a\u3010\u5927\u5b66ABC\u3011\u521b\u65b0\u57fa\u91d1
p2488
ssS'b0aea73439bb4fbed1a2d349.html'
p2489
(dp2490
g3
V\u7c7b\u522b\uff1aVc
p2491
sg5
V2009-09-09  18:37
p2492
sg7
V\u000a\u000a\u904d\u5386\u76ee\u5f55\u7684\u6a21\u5757
p2493
ssS'04243cd33f8ee9043bf3cfc2.html'
p2494
(dp2495
g3
V\u7c7b\u522b\uff1aEnglish
p2496
sg5
V2008-01-28  23:11
p2497
sg7
V\u000a\u000ano.1(beginning)
p2498
ssS'2790d0b49931057b8ad4b2ab.html'
p2499
(dp2500
g3
V\u7c7b\u522b\uff1a\u7f51\u5740\u6536\u96c6
p2501
sg5
V2009-03-18  13:35
p2502
sg7
V\u000a\u000a\u3010\u8f6c\u3011\u82e5\u5e72\u6e90\u7801\u7f51\u7ad9
p2503
ssS'6a639451076bc22e43a75ba8.html'
p2504
(dp2505
g3
V\u7c7b\u522b\uff1aNetwork
p2506
sg5
V2009-11-25  19:40
p2507
sg7
V\u000a\u000a\u5de9\u56fa\u4e00\u4e0bether_ip_tcp\u7684\u683c\u5f0f
p2508
ssS'967eaec2c20ad0130ff47762.html'
p2509
(dp2510
g3
V\u7c7b\u522b\uff1aScm
p2511
sg5
V2009-02-28  15:51
p2512
sg7
V\u000a\u000a\u4e32\u884c\u63a7\u5236\u6d41\u6c34\u706f
p2513
ssS'181d9a5277d74c070df3e38d.html'
p2514
(dp2515
g3
V\u7c7b\u522b\uff1a\u4e4c\u4e03\u516b\u7cdf\u7684\u4e00\u4e9b\u4e8b
p2516
sg5
V2009-07-06  14:17
p2517
sg7
V\u000a\u000ac++.stl.string\u7684\u53cb\u5143swap\u51fd\u6570\uff08\u5f88\u6709\u6b3a\u9a97\u6027\u7684\u4e00\u4e2a\u4f8b\u5b50\uff09
p2518
ssS'de161417665bbc0a4b90a7ab.html'
p2519
(dp2520
g3
V\u7c7b\u522b\uff1a\u6742\u724c\u5c0f\u8bb0
p2521
sg5
V2009-12-15  15:50
p2522
sg7
V\u000a\u000a\u3010impossible.\u5934\u8111\u75af\u4e86\u7cfb\u5217.5\u3011\u67d0\u6559\u5b66\u7814\u8ba8\u4f1a\u7684\u9884\u53d1\u8a00\u7a3f
p2523
ssS'9b68b30157c7201a728da53f.html'
p2524
(dp2525
g3
V\u7c7b\u522b\uff1a\u6742\u724c\u5c0f\u8bb0
p2526
sg5
V2011-07-05  12:27
p2527
sg7
V\u000a\u000a\u5e1d\u90fd\u9171\u6cb9\u8bb0\uff1f\uff01\uff08\u5341\u4e09\uff09\u2014\u2014The End
p2528
ssS'fa2ebd453c45ec2acefca387.html'
p2529
(dp2530
g3
V\u7c7b\u522b\uff1aNetwork
p2531
sg5
V2010-04-21  22:44
p2532
sg7
V\u000a\u000asocket\u51fd\u6570\u7684\u5e38\u89c1\u9519\u8bef
p2533
ssS'b0aea73488493eb8d1a2d3a1.html'
p2534
(dp2535
g3
V\u7c7b\u522b\uff1a\u6742\u724c\u5c0f\u8bb0
p2536
sg5
V2010-10-24  03:38
p2537
sg7
V\u000a\u000a\u5e1d\u90fd\u9171\u6cb9\u8bb0\uff1f\uff01\uff08\u516b\uff09
p2538
ssS'52438826caacf41f8b82a127.html'
p2539
(dp2540
g3
V\u7c7b\u522b\uff1a\u6742\u724c\u5c0f\u8bb0
p2541
sg5
V2009-06-04  21:44
p2542
sg7
V\u000a\u000a\u7b2c\u4e00\u9762\uff08\u53cb\u60c5\u63d0\u793a\uff1a\u6c34\u8bdd\u4e00\u5806\uff0c\u6280\u672f\u5b85\u7537\u8bf7\u5f80\u540e\u9762\u7ffb\uff09
p2543
ssS'63e406f32fbc43cb0b46e005.html'
p2544
(dp2545
g3
V\u7c7b\u522b\uff1a\u6742\u724c\u5c0f\u8bb0
p2546
sg5
V2006-10-14  23:07
p2547
sg7
V\u000a\u000a\u51fa\u5e08\u5566..
p2548
ssS'93ccc5fc8ec8ea8ab801a0b6.html'
p2549
(dp2550
g3
V\u7c7b\u522b\uff1aScm
p2551
sg5
V2009-04-09  19:20
p2552
sg7
V\u000a\u000a\u7f16\u7801\u5668\u77e9\u9635\u952e\u76d8\uff08\u4e00\uff09\u6982\u8ff0
p2553
ssS'88cfb631bba197a35fdf0ed3.html'
p2554
(dp2555
g3
V\u7c7b\u522b\uff1a\u7b97\u6cd5
p2556
sg5
V2010-02-07  23:28
p2557
sg7
V\u000a\u000aBFS+HASH\u5224\u91cd\u7684\u51e0\u70b9\u8bb0\u5f55\uff08POJ2946\uff09
p2558
ssS'd7b61a38646ee1f8b311c745.html'
p2559
(dp2560
g3
V\u7c7b\u522b\uff1a\u90a3\u4e9b\u4e66
p2561
sg5
V2009-09-20  22:04
p2562
sg7
V\u000a\u000a\u7ed9\u5c0f\u670b\u53cb\u7684\u4e66\u5355
p2563
ssS'902133db2b9c7f6bd1164e3c.html'
p2564
(dp2565
g3
V\u7c7b\u522b\uff1a\u6742\u724c\u5c0f\u8bb0
p2566
sg5
V2010-06-16  12:22
p2567
sg7
V\u000a\u000a\u3010\u5404\u79cd\u6559\u5506\u3011UESTC\u597d\u4e0d\u597d\uff1f
p2568
ssS'd8001fcef6a35d37b700c80d.html'
p2569
(dp2570
g3
V\u7c7b\u522b\uff1ac&#47;c++
p2571
sg5
V2010-09-24  22:13
p2572
sg7
V\u000a\u000a\u4e3a\u4ec0\u4e48\u8981\u6c42printf\u7684\u53c2\u6570\u5927\u4e8e\u7b49\u4e8e\u4e24\u4e2a\uff1f\uff1f
p2573
ssS'a2f3e1c45fa147a08326acbc.html'
p2574
(dp2575
g3
V\u7c7b\u522b\uff1aMath
p2576
sg5
V2009-06-14  19:34
p2577
sg7
V\u000a\u000aNelder-Mead\u5355\u7eaf\u5f62\u6cd5\u6c42\u591a\u5143\u51fd\u6570\u6781\u503c\uff08MATLAB\uff09
p2578
ssS'e6dca5c3af61185db219a827.html'
p2579
(dp2580
g3
V\u7c7b\u522b\uff1aVb
p2581
sg5
V2009-03-07  16:38
p2582
sg7
V\u000a\u000a\u5e2e\u4eba\u6539\u4ee3\u7801\uff08\u5224\u65ad\u5de5\u4f5c\u7c3f\u6253\u5f00\u5426\uff09\uff08VBA)
p2583
ssS'fa2ebd45db2fd724cefca317.html'
p2584
(dp2585
g3
V\u7c7b\u522b\uff1aoi\u6863\u6848
p2586
sg5
V2007-07-10  21:28
p2587
sg7
V\u000a\u000a\u6587\u4ef6\u7ed3\u5c3e\u7684\u95ee\u9898
p2588
ssS'c6c06a59597b10262934f029.html'
p2589
(dp2590
g3
V\u7c7b\u522b\uff1aEnglish
p2591
sg5
V2010-05-18  22:12
p2592
sg7
V\u000a\u000a[piano]Fairy Tale
p2593
ssS'83b2db0966a85c8cd0581b0b.html'
p2594
(dp2595
g3
V\u7c7b\u522b\uff1a\u6742\u724c\u5c0f\u8bb0
p2596
sg5
V2010-10-03  16:33
p2597
sg7
V\u000a\u000a\u5e1d\u90fd\u9171\u6cb9\u8bb0\uff1f\uff01\uff08\u516d\uff09--\u957f\u57ce
p2598
ssS'b8068013cf620cdaf6039e5e.html'
p2599
(dp2600
g3
V\u7c7b\u522b\uff1a\u7535\u8111\u6280\u672f
p2601
sg5
V2009-10-23  12:55
p2602
sg7
V\u000a\u000aword\u4e2d\u4e00\u4e2a\u6253\u52fe\u7684\u65b9\u6846
p2603
ssS'4411b8fba8d9562f4e4aeaa3.html'
p2604
(dp2605
g3
V\u7c7b\u522b\uff1ac&#47;c++
p2606
sg5
V2010-06-20  20:43
p2607
sg7
V\u000a\u000a\u6709\u5173C\u4f4d\u57df\u4f7f\u7528\u7684\u7ec6\u8282
p2608
ssS'40e5d3f911871850242df2c5.html'
p2609
(dp2610
g3
V\u7c7b\u522b\uff1aVb
p2611
sg5
V2009-07-26  12:02
p2612
sg7
V\u000a\u000afind\u5bf9\u8c61\uff08word.vba\uff09
p2613
ssS'4b45ae0fb8da15e1aa64577c.html'
p2614
(dp2615
g3
V\u7c7b\u522b\uff1aEnglish
p2616
sg5
V2010-05-30  17:24
p2617
sg7
V\u000a\u000aExperiencing Self & Remembering Self
p2618
ssS'a7ea30f3bb22224a342accce.html'
p2619
(dp2620
g3
V\u7c7b\u522b\uff1a\u6742\u724c\u5c0f\u8bb0
p2621
sg5
V2011-08-06  17:59
p2622
sg7
V\u000a\u000a\u725b\u90ce\u548c\u7ec7\u5973\u7684\u6545\u4e8b
p2623
ssS'ecf54b3417881452241f14ec.html'
p2624
(dp2625
g3
V\u7c7b\u522b\uff1a\u6742\u724c\u5c0f\u8bb0
p2626
sg5
V2011-10-05  17:46
p2627
sg7
V\u000a\u000a\u5c0f\u65f6\u4e24\u4e09\u4e8b
p2628
ssS'4d8a3ea83232adb9ca130cbb.html'
p2629
(dp2630
g3
V\u7c7b\u522b\uff1aScm
p2631
sg5
V2009-03-13  20:10
p2632
sg7
V\u000a\u000aLCD_AMPIRE12864\u7684\u7b80\u5355\u4f7f\u7528\uff08PROTEUS\uff09
p2633
ssS'2c875ffb70e6201f6c22eb75.html'
p2634
(dp2635
g3
V\u7c7b\u522b\uff1ac&#47;c++
p2636
sg5
V2009-07-19  01:10
p2637
sg7
V\u000a\u000ascanf\u7684\u4e09\u70b9\u4e0d\u5e38\u89c1\u4f46\u5f88\u5b9e\u7528\u7684\u65b9\u6cd5\uff08\u5ffd\u7565\u53d8\u91cf\uff0c\u626b\u63cf\u5b57\u7b26\uff0c\u8bfb\u5165\u5b57\u7b26\u4e2a\u6570\uff09
p2638
ssS'1b3b68d959aa3d2510df9b09.html'
p2639
(dp2640
g3
V\u7c7b\u522b\uff1ac&#47;c++
p2641
sg5
V2009-07-21  16:44
p2642
sg7
V\u000a\u000a\u653b\u51fb\u865a\u51fd\u6570\uff08\u610f\u601d\u4e00\u4e0b\uff09
p2643
ssS'afe36163f9df4c790d33fa9a.html'
p2644
(dp2645
g3
V\u7c7b\u522b\uff1a\u6742\u724c\u5c0f\u8bb0
p2646
sg5
V2011-06-20  23:26
p2647
sg7
V\u000a\u000a\u5927\u8fde\u4e09\u65e5--2--\u5f00\u53d1\u533a
p2648
ssS'4a5fc3ea1c2908dad439c9be.html'
p2649
(dp2650
g3
V\u7c7b\u522b\uff1a\u7f51\u5740\u6536\u96c6
p2651
sg5
V2009-07-06  13:56
p2652
sg7
V\u000a\u000aErich&#39;s Place\uff08\u6570\u5b66\uff0c\u8c1c\u9898\uff09
p2653
ssS'2a2d953d41c22908bba16775.html'
p2654
(dp2655
g3
V\u7c7b\u522b\uff1a\u4e4c\u4e03\u516b\u7cdf\u7684\u4e00\u4e9b\u4e8b
p2656
sg5
V2009-06-09  22:04
p2657
sg7
V\u000a\u000a\u591a\u884c\u6ce8\u91ca(vc6.warning C4010)
p2658
ssS'57c903f7b8e29c2a730eecc6.html'
p2659
(dp2660
g3
V\u7c7b\u522b\uff1aScm
p2661
sg5
V2009-03-01  15:58
p2662
sg7
V\u000a\u000aKEIL C \u7f16\u8bd1\u7684TRICK\u63a2\u7a761\uff08\u6761\u4ef6\u8df3\u8f6c\uff09
p2663
ssS'1bacf81fb3d74c6bf724e4b4.html'
p2664
(dp2665
g3
V\u7c7b\u522b\uff1aScm
p2666
sg5
V2009-03-16  17:16
p2667
sg7
V\u000a\u000a555+4017\u6d41\u6c34\u706f
p2668
ssS'ea07a1640f40a0f9f6365466.html'
p2669
(dp2670
g3
V\u7c7b\u522b\uff1aVc
p2671
sg5
V2009-08-26  21:25
p2672
sg7
V\u000a\u000a\u63a7\u5236\u53f0\u7684\u5e95\u5c42\u8f93\u5165\u51fd\u6570\u83b7\u53d6\u9f20\u6807\u4fe1\u606f
p2673
ssS'1ece48a734a62397d04358e6.html'
p2674
(dp2675
g3
V\u7c7b\u522b\uff1a\u6742\u724c\u5c0f\u8bb0
p2676
sg5
V2007-08-27  16:27
p2677
sg7
V\u000a\u000a\u7ec8\u4e8e\u5b8c\u4e86\uff0c\u8003\u4e2a\u9a7e\u7167\u539f\u6765\u8fd9\u4e48\u607c\u706b\u3002\u3002\u3002
p2678
ssS'8fbb05b3697a32b4d8335a3f.html'
p2679
(dp2680
g3
V\u7c7b\u522b\uff1aNetwork
p2681
sg5
V2011-02-01  00:22
p2682
sg7
V\u000a\u000a[paper] XORs in The Air: Practical Wireless Network Coding\uff08\u7ffb\u8bd1\u3001\u4e00\uff09
p2683
ssS'c5c022341dec19375ab5f509.html'
p2684
(dp2685
g3
V\u7c7b\u522b\uff1aNetwork
p2686
sg5
V2010-03-24  11:45
p2687
sg7
V\u000a\u000a\u3010PacketTracer\u3011\u591a\u5730\u5740\u6c60dhcp
p2688
ssS'0ffd80827cfc679bf703a697.html'
p2689
(dp2690
g3
V\u7c7b\u522b\uff1aMatlab
p2691
sg5
V2009-12-29  14:03
p2692
sg7
V\u000a\u000a\u5206\u79bb\u4e24\u4e2a\u6b63\u5f26\u4fe1\u53f7\u3002\uff08MATLAB\u6a21\u62df\uff09
p2693
ssS'57c903f7a456602b720eec9c.html'
p2694
(dp2695
g3
V\u7c7b\u522b\uff1a\u7f51\u5740\u6536\u96c6
p2696
sg5
V2009-09-07  17:30
p2697
sg7
V\u000a\u000a\u63a8\u8350\u7f51\u7ad9\uff1aMBA\u667a\u5e93\u767e\u79d1
p2698
ssS'd224c9fd427c6f4cd7887d17.html'
p2699
(dp2700
g3
V\u7c7b\u522b\uff1aVc
p2701
sg5
V2009-09-09  20:39
p2702
sg7
V\u000a\u000a\u4ee3\u7801\u884c\u6570\u7edf\u8ba1
p2703
ssS'612531c70109eac6d000605c.html'
p2704
(dp2705
g3
V\u7c7b\u522b\uff1a\u6742\u724c\u5c0f\u8bb0
p2706
sg5
V2011-07-10  16:13
p2707
sg7
V\u000a\u000a\u6709\u4e9b\u4eba\u76ee\u6807\u660e\u786e\uff08\u8001\u56fe\uff09
p2708
ssS'b89d33125bbfa04af919b8ce.html'
p2709
(dp2710
g3
V\u7c7b\u522b\uff1a\u6742\u724c\u5c0f\u8bb0
p2711
sg5
V2011-08-27  18:35
p2712
sg7
V\u000a\u000a\u5173\u4e8e\u7231\u60c5\u7684\u5934\u8111\u98ce\u66b4
p2713
ssS'967eaec2215eb7110ff47750.html'
p2714
(dp2715
g3
V\u7c7b\u522b\uff1aNetwork
p2716
sg5
V2009-10-19  22:38
p2717
sg7
V\u000a\u000aRFC925\u7b14\u8bb0,multi-lan\u4e0b\u7684\u5730\u5740\u89e3\u6790(\u4fd7\u79f0\u7684\u4ee3\u7406ARP)
p2718
ssS'314e4c23994d0b429922edd1.html'
p2719
(dp2720
g3
V\u7c7b\u522b\uff1aNetwork
p2721
sg5
V2010-11-19  00:30
p2722
sg7
V\u000a\u000a\u7f51\u7edc\u5e94\u7528\u6846\u67b6\u7684\u8fde\u63a5\u6a21\u578b\uff08xpool\uff0ccpool\uff0cepool\uff0capool\uff09
p2723
ssS'2210888bda828cdafc1f10eb.html'
p2724
(dp2725
g3
V\u7c7b\u522b\uff1ac&#47;c++
p2726
sg5
V2009-06-26  19:52
p2727
sg7
V\u000a\u000avolatile\u7684\u4fee\u9970\u7ed3\u5408\u6027\u95ee\u9898
p2728
ssS'963c2d7f084f771b29388a3a.html'
p2729
(dp2730
g3
V\u7c7b\u522b\uff1aNetwork
p2731
sg5
V2011-02-01  00:24
p2732
sg7
V\u000a\u000a[paper] XORs in The Air: Practical Wireless Network Coding\uff08\u7ffb\u8bd1\u3001\u4e8c\uff09
p2733
ssS'902133db58c18e6ed1164e4b.html'
p2734
(dp2735
g3
V\u7c7b\u522b\uff1a\u7b97\u6cd5
p2736
sg5
V2009-05-30  09:11
p2737
sg7
V\u000a\u000aTreap\uff08\u968f\u673a\u5316\u7684\u4e8c\u53c9\u641c\u7d22\u6811\uff09
p2738
ssS'68db0055e2f572cfb645ae86.html'
p2739
(dp2740
g3
V\u7c7b\u522b\uff1a\u6742\u724c\u5c0f\u8bb0
p2741
sg5
V2010-02-04  11:39
p2742
sg7
V\u000a\u000a\u505c\u7535\u7684\u4e00\u5929
p2743
ssS'b8eb460843a8fc870b7b82cf.html'
p2744
(dp2745
g3
V\u7c7b\u522b\uff1aLinux
p2746
sg5
V2011-01-15  13:53
p2747
sg7
V\u000a\u000a\u7528Makefile\u6765\u62d3\u6251\u6392\u5e8f
p2748
ssS'6d3387102fb00509203f2e2f.html'
p2749
(dp2750
g3
V\u7c7b\u522b\uff1a\u7f51\u5740\u6536\u96c6
p2751
sg5
V2009-03-25  12:18
p2752
sg7
V\u000a\u000a\u6700\u957f\u5b57\u6bcd\u8868\u90ae\u7bb1\u540d
p2753
ssS'86c1de07a895d2c07a894702.html'
p2754
(dp2755
g3
V\u7c7b\u522b\uff1a\u6742\u724c\u5c0f\u8bb0
p2756
sg5
V2010-06-18  13:57
p2757
sg7
V\u000a\u000a\u5185\u9690\u6d4b\u8bd5\u3002\u3002\u5384\u3002\u3002
p2758
ssS'8504fa1f4fa13dfde1fe0b1e.html'
p2759
(dp2760
g3
V\u7c7b\u522b\uff1ac&#47;c++
p2761
sg5
V2009-03-06  21:30
p2762
sg7
V\u000a\u000a\u4e0d\u7528\u6761\u4ef6,\u8fd4\u56de\u5927\u6570\uff0c\u4e14\u6548\u7387\u66f4\u9ad8
p2763
ss.